Archive member included to satisfy reference by file (symbol)

libcom32.a(writestr.o)        isolinux.o (crlf)
libcom32.a(idle.o)            isolinux.o (__idle)
libcom32.a(cleanup.o)         isolinux.o (cleanup_hardware)
libcom32.a(init.o)            isolinux.o (mem_init)
libcom32.a(conio.o)           isolinux.o (pm_write_serial)
libcom32.a(writehex.o)        isolinux.o (pm_writehex2)
libcom32.a(load_env32.o)      isolinux.o (load_env32)
libcom32.a(getcwd.o)          libcom32.a(load_env32.o) (core_getcwd)
libcom32.a(readdir.o)         isolinux.o (opendir)
libcom32.a(fs.o)              libcom32.a(readdir.o) (_close_file)
libcom32.a(iso9660.o)         isolinux.o (iso_fs_ops)
libcom32.a(susp_rr.o)         libcom32.a(iso9660.o) (susp_rr_get_nm)
libcom32.a(chdir.o)           isolinux.o (pm_realpath)
libcom32.a(diskio.o)          libcom32.a(fs.o) (device_init)
libcom32.a(diskio_bios.o)     isolinux.o (pm_fs_init)
libcom32.a(nonextextent.o)    libcom32.a(iso9660.o) (no_next_extent)
libcom32.a(mangle.o)          libcom32.a(iso9660.o) (generic_mangle_name)
libcom32.a(searchconfig.o)    libcom32.a(load_env32.o) (search_dirs)
libcom32.a(close.o)           libcom32.a(iso9660.o) (generic_close_file)
libcom32.a(cache.o)           libcom32.a(fs.o) (cache_init)
libcom32.a(pmapi.o)           isolinux.o (pm_api_vector)
libcom32.a(rllpack.o)         isolinux.o (rllpack)
libcom32.a(hello.o)           isolinux.o (hello)
libcom32.a(graphics.o)        isolinux.o (syslinux_force_text_mode)
libcom32.a(font.o)            libcom32.a(graphics.o) (use_font)
libcom32.a(bios.o)            libcom32.a(conio.o) (KbdMap)
libcom32.a(path.o)            libcom32.a(load_env32.o) (path_add)
libcom32.a(init.o)            isolinux.o (init)
libcom32.a(lzo1x_f2.o)        isolinux.o (_lzo1x_decompress_asm_fast_safe)
libcom32.a(errno.o)           libcom32.a(fs.o) (errno)
libcom32.a(serirq.o)          libcom32.a(conio.o) (SerialHead)
libcom32.a(malloc.o)          libcom32.a(bios.o) (bios_malloc)
libcom32.a(free.o)            libcom32.a(bios.o) (bios_free)
libcom32.a(sysappend.o)       libcom32.a(pmapi.o) (sysappend_strings)
libcom32.a(kaboom.o)          libcom32.a(iso9660.o) (_kaboom)
libcom32.a(call16.o)          libcom32.a(bios.o) (call16)
libcom32.a(dmi.o)             libcom32.a(bios.o) (dmi_init)
libcom32.a(getfssec.o)        libcom32.a(iso9660.o) (generic_getfssec)
libcom32.a(sem_asm.o)         libcom32.a(malloc.o) (sem_down)
libcom32.a(semaphore.o)       libcom32.a(sem_asm.o) (__sem_down_slow)
libcom32.a(root_thread.o)     libcom32.a(semaphore.o) (__current)
libcom32.a(schedule.o)        libcom32.a(semaphore.o) (__schedule)
libcom32.a(thread_asm.o)      libcom32.a(schedule.o) (__switch_to)
libcom32.a(exit_thread.o)     libcom32.a(thread_asm.o) (__exit_thread)
/opt/syslinux/bios/com32/lib/libcom32core.a(memcpy.o)
                              (--whole-archive)
/opt/syslinux/bios/com32/lib/libcom32core.a(memset.o)
                              (--whole-archive)
/opt/syslinux/bios/com32/lib/libcom32core.a(memcmp.o)
                              (--whole-archive)
/opt/syslinux/bios/com32/lib/libcom32core.a(printf.o)
                              (--whole-archive)
/opt/syslinux/bios/com32/lib/libcom32core.a(strncmp.o)
                              (--whole-archive)
/opt/syslinux/bios/com32/lib/libcom32core.a(vfprintf.o)
                              (--whole-archive)
/opt/syslinux/bios/com32/lib/libcom32core.a(strlen.o)
                              (--whole-archive)
/opt/syslinux/bios/com32/lib/libcom32core.a(vsnprintf.o)
                              (--whole-archive)
/opt/syslinux/bios/com32/lib/libcom32core.a(snprintf.o)
                              (--whole-archive)
/opt/syslinux/bios/com32/lib/libcom32core.a(stpcpy.o)
                              (--whole-archive)
/opt/syslinux/bios/com32/lib/libcom32core.a(strcmp.o)
                              (--whole-archive)
/opt/syslinux/bios/com32/lib/libcom32core.a(strdup.o)
                              (--whole-archive)
/opt/syslinux/bios/com32/lib/libcom32core.a(strcpy.o)
                              (--whole-archive)
/opt/syslinux/bios/com32/lib/libcom32core.a(strncpy.o)
                              (--whole-archive)
/opt/syslinux/bios/com32/lib/libcom32core.a(setjmp.o)
                              (--whole-archive)
/opt/syslinux/bios/com32/lib/libcom32core.a(fopen.o)
                              (--whole-archive)
/opt/syslinux/bios/com32/lib/libcom32core.a(fread.o)
                              (--whole-archive)
/opt/syslinux/bios/com32/lib/libcom32core.a(fread2.o)
                              (--whole-archive)
/opt/syslinux/bios/com32/lib/libcom32core.a(puts.o)
                              (--whole-archive)
/opt/syslinux/bios/com32/lib/libcom32core.a(strtoul.o)
                              (--whole-archive)
/opt/syslinux/bios/com32/lib/libcom32core.a(strntoumax.o)
                              (--whole-archive)
/opt/syslinux/bios/com32/lib/libcom32core.a(strcasecmp.o)
                              (--whole-archive)
/opt/syslinux/bios/com32/lib/libcom32core.a(sprintf.o)
                              (--whole-archive)
/opt/syslinux/bios/com32/lib/libcom32core.a(strlcat.o)
                              (--whole-archive)
/opt/syslinux/bios/com32/lib/libcom32core.a(strchr.o)
                              (--whole-archive)
/opt/syslinux/bios/com32/lib/libcom32core.a(strlcpy.o)
                              (--whole-archive)
/opt/syslinux/bios/com32/lib/libcom32core.a(strncasecmp.o)
                              (--whole-archive)
/opt/syslinux/bios/com32/lib/libcom32core.a(ctypes.o)
                              (--whole-archive)
/opt/syslinux/bios/com32/lib/libcom32core.a(fputs.o)
                              (--whole-archive)
/opt/syslinux/bios/com32/lib/libcom32core.a(fwrite2.o)
                              (--whole-archive)
/opt/syslinux/bios/com32/lib/libcom32core.a(fwrite.o)
                              (--whole-archive)
/opt/syslinux/bios/com32/lib/libcom32core.a(fgetc.o)
                              (--whole-archive)
/opt/syslinux/bios/com32/lib/libcom32core.a(fclose.o)
                              (--whole-archive)
/opt/syslinux/bios/com32/lib/libcom32core.a(lmalloc.o)
                              (--whole-archive)
/opt/syslinux/bios/com32/lib/libcom32core.a(err_read.o)
                              (--whole-archive)
/opt/syslinux/bios/com32/lib/libcom32core.a(err_write.o)
                              (--whole-archive)
/opt/syslinux/bios/com32/lib/libcom32core.a(null_read.o)
                              (--whole-archive)
/opt/syslinux/bios/com32/lib/libcom32core.a(stdcon_write.o)
                              (--whole-archive)
/opt/syslinux/bios/com32/lib/libcom32core.a(memscan.o)
                              (--whole-archive)
/opt/syslinux/bios/com32/lib/libcom32core.a(strrchr.o)
                              (--whole-archive)
/opt/syslinux/bios/com32/lib/libcom32core.a(strcat.o)
                              (--whole-archive)
/opt/syslinux/bios/com32/lib/libcom32core.a(__ashldi3.o)
                              (--whole-archive)
/opt/syslinux/bios/com32/lib/libcom32core.a(__udivdi3.o)
                              (--whole-archive)
/opt/syslinux/bios/com32/lib/libcom32core.a(__negdi2.o)
                              (--whole-archive)
/opt/syslinux/bios/com32/lib/libcom32core.a(__ashrdi3.o)
                              (--whole-archive)
/opt/syslinux/bios/com32/lib/libcom32core.a(__lshrdi3.o)
                              (--whole-archive)
/opt/syslinux/bios/com32/lib/libcom32core.a(__muldi3.o)
                              (--whole-archive)
/opt/syslinux/bios/com32/lib/libcom32core.a(__udivmoddi4.o)
                              (--whole-archive)
/opt/syslinux/bios/com32/lib/libcom32core.a(__umoddi3.o)
                              (--whole-archive)
/opt/syslinux/bios/com32/lib/libcom32core.a(__divdi3.o)
                              (--whole-archive)
/opt/syslinux/bios/com32/lib/libcom32core.a(__moddi3.o)
                              (--whole-archive)
/opt/syslinux/bios/com32/lib/libcom32core.a(debug.o)
                              (--whole-archive)
/opt/syslinux/bios/com32/lib/libcom32core.a(intcall.o)
                              (--whole-archive)
/opt/syslinux/bios/com32/lib/libcom32core.a(farcall.o)
                              (--whole-archive)
/opt/syslinux/bios/com32/lib/libcom32core.a(cfarcall.o)
                              (--whole-archive)
/opt/syslinux/bios/com32/lib/libcom32core.a(zeroregs.o)
                              (--whole-archive)
/opt/syslinux/bios/com32/lib/libcom32core.a(argv.o)
                              (--whole-archive)
/opt/syslinux/bios/com32/lib/libcom32core.a(sleep.o)
                              (--whole-archive)
/opt/syslinux/bios/com32/lib/libcom32core.a(fileinfo.o)
                              (--whole-archive)
/opt/syslinux/bios/com32/lib/libcom32core.a(opendev.o)
                              (--whole-archive)
/opt/syslinux/bios/com32/lib/libcom32core.a(read.o)
                              (--whole-archive)
/opt/syslinux/bios/com32/lib/libcom32core.a(write.o)
                              (--whole-archive)
/opt/syslinux/bios/com32/lib/libcom32core.a(ftell.o)
                              (--whole-archive)
/opt/syslinux/bios/com32/lib/libcom32core.a(close.o)
                              (--whole-archive)
/opt/syslinux/bios/com32/lib/libcom32core.a(open.o)
                              (--whole-archive)
/opt/syslinux/bios/com32/lib/libcom32core.a(fileread.o)
                              (--whole-archive)
/opt/syslinux/bios/com32/lib/libcom32core.a(fileclose.o)
                              (--whole-archive)
/opt/syslinux/bios/com32/lib/libcom32core.a(openmem.o)
                              (--whole-archive)
/opt/syslinux/bios/com32/lib/libcom32core.a(isatty.o)
                              (--whole-archive)
/opt/syslinux/bios/com32/lib/libcom32core.a(fstat.o)
                              (--whole-archive)
/opt/syslinux/bios/com32/lib/libcom32core.a(dprintf.o)
                              (--whole-archive)
/opt/syslinux/bios/com32/lib/libcom32core.a(vdprintf.o)
                              (--whole-archive)
/opt/syslinux/bios/com32/lib/libcom32core.a(idle.o)
                              (--whole-archive)
/opt/syslinux/bios/com32/lib/libcom32core.a(exit.o)
                              (--whole-archive)
/opt/syslinux/bios/com32/lib/libcom32core.a(common.o)
                              (--whole-archive)
/opt/syslinux/bios/com32/lib/libcom32core.a(elf_module.o)
                              (--whole-archive)
/opt/syslinux/bios/com32/lib/libcom32core.a(elfutils.o)
                              (--whole-archive)
/opt/syslinux/bios/com32/lib/libcom32core.a(exec.o)
                              (--whole-archive)
/opt/syslinux/bios/com32/lib/libcom32core.a(elf_module.o)
                              (--whole-archive)
libisolinux.a(rawcon.o)       (--whole-archive)
libisolinux.a(localboot.o)    (--whole-archive)
libisolinux.a(isolinux-c.o)   (--whole-archive)

Allocating common symbols
Common symbol       size              file

SysAppends          0x4               libcom32.a(sysappend.o)
errno               0x4               libcom32.a(errno.o)
KbdMap              0x100             libcom32.a(bios.o)
__process_exit_jmp  0x18              /opt/syslinux/bios/com32/lib/libcom32core.a(exec.o)
bios_free_mem       0x4               libcom32.a(init.o)
__com32_zero_regs   0x2c              /opt/syslinux/bios/com32/lib/libcom32core.a(zeroregs.o)
PXERetry            0x2               libcom32.a(bios.o)
VGAPos              0x2               libcom32.a(graphics.o)
zero_regs           0x2c              libcom32.a(call16.o)
sched_hook_func     0x4               libcom32.a(schedule.o)
ConfigName          0x100             libcom32.a(searchconfig.o)
__file_info         0x201600          /opt/syslinux/bios/com32/lib/libcom32core.a(fileinfo.o)
VGAFileBuf          0x100             libcom32.a(graphics.o)
idle_hook_func      0x4               libcom32.a(idle.o)
files               0x600             libcom32.a(fs.o)
KbdFlags            0x1               libcom32.a(bios.o)
VGAFileMBuf         0x100             libcom32.a(graphics.o)
__core_malloc_head  0x70              libcom32.a(init.o)
VGAFilePtr          0x4               libcom32.a(graphics.o)
_screensize         0x2               libcom32.a(conio.o)
sysappend_strings   0x4c              libcom32.a(sysappend.o)
_cursor             0x2               libcom32.a(conio.o)
config_cwd          0x100             libcom32.a(searchconfig.o)

Discarded input sections

 .group         0x0000000000000000        0x8 /opt/syslinux/bios/com32/lib/libcom32core.a(printf.o)
 .group         0x0000000000000000        0x8 /opt/syslinux/bios/com32/lib/libcom32core.a(vfprintf.o)
 .text.__x86.get_pc_thunk.bx
                0x0000000000000000        0x4 /opt/syslinux/bios/com32/lib/libcom32core.a(vfprintf.o)
 .group         0x0000000000000000        0x8 /opt/syslinux/bios/com32/lib/libcom32core.a(vsnprintf.o)
 .group         0x0000000000000000        0x8 /opt/syslinux/bios/com32/lib/libcom32core.a(snprintf.o)
 .text.__x86.get_pc_thunk.bx
                0x0000000000000000        0x4 /opt/syslinux/bios/com32/lib/libcom32core.a(snprintf.o)
 .group         0x0000000000000000        0x8 /opt/syslinux/bios/com32/lib/libcom32core.a(strdup.o)
 .text.__x86.get_pc_thunk.bx
                0x0000000000000000        0x4 /opt/syslinux/bios/com32/lib/libcom32core.a(strdup.o)
 .group         0x0000000000000000        0x8 /opt/syslinux/bios/com32/lib/libcom32core.a(fopen.o)
 .text.__x86.get_pc_thunk.bx
                0x0000000000000000        0x4 /opt/syslinux/bios/com32/lib/libcom32core.a(fopen.o)
 .group         0x0000000000000000        0x8 /opt/syslinux/bios/com32/lib/libcom32core.a(fread.o)
 .text.__x86.get_pc_thunk.bx
                0x0000000000000000        0x4 /opt/syslinux/bios/com32/lib/libcom32core.a(fread.o)
 .group         0x0000000000000000        0x8 /opt/syslinux/bios/com32/lib/libcom32core.a(fread2.o)
 .text.__x86.get_pc_thunk.bx
                0x0000000000000000        0x4 /opt/syslinux/bios/com32/lib/libcom32core.a(fread2.o)
 .group         0x0000000000000000        0x8 /opt/syslinux/bios/com32/lib/libcom32core.a(puts.o)
 .text.__x86.get_pc_thunk.bx
                0x0000000000000000        0x4 /opt/syslinux/bios/com32/lib/libcom32core.a(puts.o)
 .group         0x0000000000000000        0x8 /opt/syslinux/bios/com32/lib/libcom32core.a(strtoul.o)
 .text.__x86.get_pc_thunk.bx
                0x0000000000000000        0x4 /opt/syslinux/bios/com32/lib/libcom32core.a(strtoul.o)
 .group         0x0000000000000000        0x8 /opt/syslinux/bios/com32/lib/libcom32core.a(strntoumax.o)
 .group         0x0000000000000000        0x8 /opt/syslinux/bios/com32/lib/libcom32core.a(strcasecmp.o)
 .group         0x0000000000000000        0x8 /opt/syslinux/bios/com32/lib/libcom32core.a(sprintf.o)
 .text.__x86.get_pc_thunk.bx
                0x0000000000000000        0x4 /opt/syslinux/bios/com32/lib/libcom32core.a(sprintf.o)
 .group         0x0000000000000000        0x8 /opt/syslinux/bios/com32/lib/libcom32core.a(strncasecmp.o)
 .text.__x86.get_pc_thunk.bx
                0x0000000000000000        0x4 /opt/syslinux/bios/com32/lib/libcom32core.a(strncasecmp.o)
 .group         0x0000000000000000        0x8 /opt/syslinux/bios/com32/lib/libcom32core.a(fputs.o)
 .text.__x86.get_pc_thunk.bx
                0x0000000000000000        0x4 /opt/syslinux/bios/com32/lib/libcom32core.a(fputs.o)
 .group         0x0000000000000000        0x8 /opt/syslinux/bios/com32/lib/libcom32core.a(fwrite2.o)
 .text.__x86.get_pc_thunk.bx
                0x0000000000000000        0x4 /opt/syslinux/bios/com32/lib/libcom32core.a(fwrite2.o)
 .group         0x0000000000000000        0x8 /opt/syslinux/bios/com32/lib/libcom32core.a(fwrite.o)
 .text.__x86.get_pc_thunk.bx
                0x0000000000000000        0x4 /opt/syslinux/bios/com32/lib/libcom32core.a(fwrite.o)
 .group         0x0000000000000000        0x8 /opt/syslinux/bios/com32/lib/libcom32core.a(fgetc.o)
 .text.__x86.get_pc_thunk.bx
                0x0000000000000000        0x4 /opt/syslinux/bios/com32/lib/libcom32core.a(fgetc.o)
 .group         0x0000000000000000        0x8 /opt/syslinux/bios/com32/lib/libcom32core.a(fclose.o)
 .text.__x86.get_pc_thunk.bx
                0x0000000000000000        0x4 /opt/syslinux/bios/com32/lib/libcom32core.a(fclose.o)
 .group         0x0000000000000000        0x8 /opt/syslinux/bios/com32/lib/libcom32core.a(lmalloc.o)
 .text.__x86.get_pc_thunk.bx
                0x0000000000000000        0x4 /opt/syslinux/bios/com32/lib/libcom32core.a(lmalloc.o)
 .group         0x0000000000000000        0x8 /opt/syslinux/bios/com32/lib/libcom32core.a(err_read.o)
 .group         0x0000000000000000        0x8 /opt/syslinux/bios/com32/lib/libcom32core.a(err_write.o)
 .text.__x86.get_pc_thunk.ax
                0x0000000000000000        0x4 /opt/syslinux/bios/com32/lib/libcom32core.a(err_write.o)
 .group         0x0000000000000000        0x8 /opt/syslinux/bios/com32/lib/libcom32core.a(stdcon_write.o)
 .text.__x86.get_pc_thunk.bx
                0x0000000000000000        0x4 /opt/syslinux/bios/com32/lib/libcom32core.a(stdcon_write.o)
 .group         0x0000000000000000        0x8 /opt/syslinux/bios/com32/lib/libcom32core.a(memscan.o)
 .group         0x0000000000000000        0x8 /opt/syslinux/bios/com32/lib/libcom32core.a(memscan.o)
 .group         0x0000000000000000        0x8 /opt/syslinux/bios/com32/lib/libcom32core.a(memscan.o)
 .text.__x86.get_pc_thunk.bx
                0x0000000000000000        0x4 /opt/syslinux/bios/com32/lib/libcom32core.a(memscan.o)
 .group         0x0000000000000000        0x8 /opt/syslinux/bios/com32/lib/libcom32core.a(strcat.o)
 .text.__x86.get_pc_thunk.bx
                0x0000000000000000        0x4 /opt/syslinux/bios/com32/lib/libcom32core.a(strcat.o)
 .group         0x0000000000000000        0x8 /opt/syslinux/bios/com32/lib/libcom32core.a(__udivdi3.o)
 .text.__x86.get_pc_thunk.si
                0x0000000000000000        0x4 /opt/syslinux/bios/com32/lib/libcom32core.a(__udivdi3.o)
 .group         0x0000000000000000        0x8 /opt/syslinux/bios/com32/lib/libcom32core.a(__umoddi3.o)
 .text.__x86.get_pc_thunk.si
                0x0000000000000000        0x4 /opt/syslinux/bios/com32/lib/libcom32core.a(__umoddi3.o)
 .group         0x0000000000000000        0x8 /opt/syslinux/bios/com32/lib/libcom32core.a(__divdi3.o)
 .text.__x86.get_pc_thunk.bx
                0x0000000000000000        0x4 /opt/syslinux/bios/com32/lib/libcom32core.a(__divdi3.o)
 .group         0x0000000000000000        0x8 /opt/syslinux/bios/com32/lib/libcom32core.a(__moddi3.o)
 .text.__x86.get_pc_thunk.bx
                0x0000000000000000        0x4 /opt/syslinux/bios/com32/lib/libcom32core.a(__moddi3.o)
 .group         0x0000000000000000        0x8 /opt/syslinux/bios/com32/lib/libcom32core.a(debug.o)
 .text.__x86.get_pc_thunk.bx
                0x0000000000000000        0x4 /opt/syslinux/bios/com32/lib/libcom32core.a(debug.o)
 .group         0x0000000000000000        0x8 /opt/syslinux/bios/com32/lib/libcom32core.a(intcall.o)
 .text.__x86.get_pc_thunk.bx
                0x0000000000000000        0x4 /opt/syslinux/bios/com32/lib/libcom32core.a(intcall.o)
 .group         0x0000000000000000        0x8 /opt/syslinux/bios/com32/lib/libcom32core.a(farcall.o)
 .text.__x86.get_pc_thunk.bx
                0x0000000000000000        0x4 /opt/syslinux/bios/com32/lib/libcom32core.a(farcall.o)
 .group         0x0000000000000000        0x8 /opt/syslinux/bios/com32/lib/libcom32core.a(cfarcall.o)
 .text.__x86.get_pc_thunk.bx
                0x0000000000000000        0x4 /opt/syslinux/bios/com32/lib/libcom32core.a(cfarcall.o)
 .group         0x0000000000000000        0x8 /opt/syslinux/bios/com32/lib/libcom32core.a(argv.o)
 .text.__x86.get_pc_thunk.bp
                0x0000000000000000        0x4 /opt/syslinux/bios/com32/lib/libcom32core.a(argv.o)
 .group         0x0000000000000000        0x8 /opt/syslinux/bios/com32/lib/libcom32core.a(sleep.o)
 .text.__x86.get_pc_thunk.bx
                0x0000000000000000        0x4 /opt/syslinux/bios/com32/lib/libcom32core.a(sleep.o)
 .group         0x0000000000000000        0x8 /opt/syslinux/bios/com32/lib/libcom32core.a(opendev.o)
 .text.__x86.get_pc_thunk.bx
                0x0000000000000000        0x4 /opt/syslinux/bios/com32/lib/libcom32core.a(opendev.o)
 .group         0x0000000000000000        0x8 /opt/syslinux/bios/com32/lib/libcom32core.a(read.o)
 .text.__x86.get_pc_thunk.di
                0x0000000000000000        0x4 /opt/syslinux/bios/com32/lib/libcom32core.a(read.o)
 .group         0x0000000000000000        0x8 /opt/syslinux/bios/com32/lib/libcom32core.a(write.o)
 .text.__x86.get_pc_thunk.di
                0x0000000000000000        0x4 /opt/syslinux/bios/com32/lib/libcom32core.a(write.o)
 .group         0x0000000000000000        0x8 /opt/syslinux/bios/com32/lib/libcom32core.a(ftell.o)
 .text.__x86.get_pc_thunk.dx
                0x0000000000000000        0x4 /opt/syslinux/bios/com32/lib/libcom32core.a(ftell.o)
 .group         0x0000000000000000        0x8 /opt/syslinux/bios/com32/lib/libcom32core.a(close.o)
 .text.__x86.get_pc_thunk.di
                0x0000000000000000        0x4 /opt/syslinux/bios/com32/lib/libcom32core.a(close.o)
 .group         0x0000000000000000        0x8 /opt/syslinux/bios/com32/lib/libcom32core.a(open.o)
 .text.__x86.get_pc_thunk.bx
                0x0000000000000000        0x4 /opt/syslinux/bios/com32/lib/libcom32core.a(open.o)
 .group         0x0000000000000000        0x8 /opt/syslinux/bios/com32/lib/libcom32core.a(fileread.o)
 .text.__x86.get_pc_thunk.bx
                0x0000000000000000        0x4 /opt/syslinux/bios/com32/lib/libcom32core.a(fileread.o)
 .group         0x0000000000000000        0x8 /opt/syslinux/bios/com32/lib/libcom32core.a(fileclose.o)
 .text.__x86.get_pc_thunk.bx
                0x0000000000000000        0x4 /opt/syslinux/bios/com32/lib/libcom32core.a(fileclose.o)
 .group         0x0000000000000000        0x8 /opt/syslinux/bios/com32/lib/libcom32core.a(openmem.o)
 .text.__x86.get_pc_thunk.bx
                0x0000000000000000        0x4 /opt/syslinux/bios/com32/lib/libcom32core.a(openmem.o)
 .group         0x0000000000000000        0x8 /opt/syslinux/bios/com32/lib/libcom32core.a(isatty.o)
 .text.__x86.get_pc_thunk.dx
                0x0000000000000000        0x4 /opt/syslinux/bios/com32/lib/libcom32core.a(isatty.o)
 .group         0x0000000000000000        0x8 /opt/syslinux/bios/com32/lib/libcom32core.a(fstat.o)
 .text.__x86.get_pc_thunk.cx
                0x0000000000000000        0x4 /opt/syslinux/bios/com32/lib/libcom32core.a(fstat.o)
 .group         0x0000000000000000        0x8 /opt/syslinux/bios/com32/lib/libcom32core.a(idle.o)
 .text.__x86.get_pc_thunk.bx
                0x0000000000000000        0x4 /opt/syslinux/bios/com32/lib/libcom32core.a(idle.o)
 .group         0x0000000000000000        0x8 /opt/syslinux/bios/com32/lib/libcom32core.a(exit.o)
 .text.__x86.get_pc_thunk.bx
                0x0000000000000000        0x4 /opt/syslinux/bios/com32/lib/libcom32core.a(exit.o)
 .group         0x0000000000000000        0x8 /opt/syslinux/bios/com32/lib/libcom32core.a(common.o)
 .text.__x86.get_pc_thunk.bx
                0x0000000000000000        0x4 /opt/syslinux/bios/com32/lib/libcom32core.a(common.o)
 .group         0x0000000000000000        0x8 /opt/syslinux/bios/com32/lib/libcom32core.a(elf_module.o)
 .text.__x86.get_pc_thunk.bx
                0x0000000000000000        0x4 /opt/syslinux/bios/com32/lib/libcom32core.a(elf_module.o)
 .group         0x0000000000000000        0x8 /opt/syslinux/bios/com32/lib/libcom32core.a(elfutils.o)
 .text.__x86.get_pc_thunk.bx
                0x0000000000000000        0x4 /opt/syslinux/bios/com32/lib/libcom32core.a(elfutils.o)
 .group         0x0000000000000000        0x8 /opt/syslinux/bios/com32/lib/libcom32core.a(exec.o)
 .text.__x86.get_pc_thunk.bx
                0x0000000000000000        0x4 /opt/syslinux/bios/com32/lib/libcom32core.a(exec.o)
 .group         0x0000000000000000        0x8 /opt/syslinux/bios/com32/lib/libcom32core.a(elf_module.o)
 .text.__x86.get_pc_thunk.bx
                0x0000000000000000        0x4 /opt/syslinux/bios/com32/lib/libcom32core.a(elf_module.o)

Memory Configuration

Name             Origin             Length             Attributes
*default*        0x0000000000000000 0xffffffffffffffff

Linker script and memory map

                0x0000000000010000                STACK32_LEN = 0x10000
                0x0000000000000000                . = 0x0
                0x0000000000000000                __module_start = ABSOLUTE (.)

.prefix         0x0000000000000000       0x14
 *(.prefix)
 .prefix        0x0000000000000000       0x14 isolinux.o
                0x0000000000001000                . = 0x1000

.earlybss       0x0000000000001000     0x28bc
                0x0000000000001000                __earlybss_start = .
 *(.earlybss)
 .earlybss      0x0000000000001000     0x28bc isolinux.o
                0x0000000000001000                trackbuf
                0x0000000000003012                BIOSName
                0x0000000000003014                BIOSType
                0x0000000000003017                DriveNumber
                0x0000000000003020                Hidden
                0x0000000000003030                spec_packet
                0x00000000000038b8                RealModeSSSP
                0x00000000000038bc                __earlybss_end = .
                0x00000000000028bc                __earlybss_len = (ABSOLUTE (__earlybss_end) - ABSOLUTE (__earlybss_start))
                0x0000000000000a2f                __earlybss_dwords = ((__earlybss_len + 0x3) >> 0x2)
                0x00000000000038bc                . = ALIGN (0x4)

.bss16          0x00000000000038c0      0x226
                0x00000000000038c0                __bss16_start = .
 *(.bss16)
 .bss16         0x00000000000038c0      0x221 isolinux.o
                0x00000000000038cc                KernelName
                0x00000000000039cc                CurrentDirName
                0x0000000000003add                OrigFDCTabPtr
 *fill*         0x0000000000003ae1        0x1 
 .bss16         0x0000000000003ae2        0x4 libcom32.a(fs.o)
                0x0000000000003ae2                SectorShift
                0x0000000000003ae4                SectorSize
                0x0000000000003ae6                __bss16_end = .
                0x0000000000000226                __bss16_len = (ABSOLUTE (__bss16_end) - ABSOLUTE (__bss16_start))
                0x000000000000008a                __bss16_dwords = ((__bss16_len + 0x3) >> 0x2)
                0x0000000000003ae8                . = ALIGN (0x4)

.config         0x0000000000003ae8        0x0 load address 0x0000000000008ef0
                0x0000000000003ae8                __config_start = .
 *(.config)
 .config        0x0000000000003ae8        0x0 isolinux.o
                0x0000000000003ae8                __config_end = .
                0x0000000000000000                __config_len = (ABSOLUTE (__config_end) - ABSOLUTE (__config_start))
                0x0000000000000000                __config_dwords = ((__config_len + 0x3) >> 0x2)
                0x0000000000003b00                . = ALIGN (0x80)

.replacestub    0x0000000000003b00        0x0 load address 0x0000000000008ef0
                0x0000000000003b00                __replacestub_start = .
 *(.replacestub)
 .replacestub   0x0000000000003b00        0x0 isolinux.o
                0x0000000000003b00                __replacestub_end = .
                0x0000000000000000                __replacestub_len = (ABSOLUTE (__replacestub_end) - ABSOLUTE (__replacestub_start))
                0x0000000000000000                __replacestub_dwords = ((__replacestub_len + 0x3) >> 0x2)
                0x0000000000003b00                . = ALIGN (0x10)
                0x0000000000003b00                __gentextnr_lma = .

.gentextnr      0x0000000000003b00      0x418
                0x0000000000003b00                __gentextnr_start = .
 *(.gentextnr)
 .gentextnr     0x0000000000003b00      0x418 isolinux.o
                0x0000000000003f18                __gentextnr_end = .
                0x0000000000000418                __gentextnr_len = (ABSOLUTE (__gentextnr_end) - ABSOLUTE (__gentextnr_start))
                0x0000000000000106                __gentextnr_dwords = ((__gentextnr_len + 0x3) >> 0x2)
                0x0000000000006c00                . = STACK_BASE

.stack16        0x0000000000006c00     0x1000
                0x0000000000006c00                __stack16_start = .
                0x0000000000007c00                . = (. + STACK_LEN)
 *fill*         0x0000000000006c00     0x1000 
                0x0000000000007c00                __stack16_end = .
 .stack16       0x0000000000007c00        0x0 isolinux.o
                0x0000000000001000                __stack16_len = (ABSOLUTE (__stack16_end) - ABSOLUTE (__stack16_start))
                0x0000000000000400                __stack16_dwords = ((__stack16_len + 0x3) >> 0x2)
                0x0000000000007c00                . = 0x7c00

.init           0x0000000000007c00      0x800
 FILL mask 0x90909090
                0x0000000000007c00                __init_start = .
 *(.init)
 .init          0x0000000000007c00      0x800 isolinux.o
                0x0000000000007c00                _start
                0x0000000000007c08                iso_boot_info
                0x0000000000007f21                getlinsec
                0x00000000000080c3                kaboom
                0x000000000000813a                syslinux_banner
                0x000000000000814c                copyright_str
                0x0000000000008384                bios_cdrom
                0x0000000000008400                __init_end = .
                0x0000000000000800                __init_len = (ABSOLUTE (__init_end) - ABSOLUTE (__init_start))
                0x0000000000000200                __init_dwords = ((__init_len + 0x3) >> 0x2)
                0x0000000000008400                . = ALIGN (0x4)

.text16         0x0000000000008400      0x54c
 FILL mask 0x90909090
                0x0000000000008400                __text16_start = .
 *(.text16)
 .text16        0x0000000000008400      0x54c isolinux.o
                0x0000000000008482                local_boot16
                0x00000000000086c3                adv_init
                0x00000000000087f6                adv_write
                0x000000000000892a                bios_timer_cleanup
                0x0000000000008933                timer_irq
                0x0000000000008948                BIOS_timer_next
                0x000000000000894c                __text16_end = .
                0x000000000000054c                __text16_len = (ABSOLUTE (__text16_end) - ABSOLUTE (__text16_start))
                0x0000000000000153                __text16_dwords = ((__text16_len + 0x3) >> 0x2)
                0x0000000000008950                . = ALIGN (0x10)

.textnr         0x0000000000008950      0x360
 FILL mask 0x90909090
                0x0000000000008950                __textnr_start = .
 *(.textnr)
 .textnr        0x0000000000008950       0xae isolinux.o
                0x00000000000089fd                core_pm_null_hook
 *fill*         0x00000000000089fe        0x2 90909090
 .textnr        0x0000000000008a00      0x2b0 libcom32.a(lzo1x_f2.o)
                0x0000000000008a00                _lzo1x_decompress_asm_fast_safe
                0x0000000000008cb0                __textnr_end = .
                0x0000000000000360                __textnr_len = (ABSOLUTE (__textnr_end) - ABSOLUTE (__textnr_start))
                0x00000000000000d8                __textnr_dwords = ((__textnr_len + 0x3) >> 0x2)
                0x0000000000008cb0                . = ALIGN (0x10)
                0x0000000000008cb0                __bcopyxx_start = .

.bcopyxx.text   0x0000000000008cb0      0x147
 FILL mask 0x90909090
                0x0000000000008cb0                __bcopyxx_text_start = .
 *(.bcopyxx.text)
 .bcopyxx.text  0x0000000000008cb0      0x147 isolinux.o
                0x0000000000008d66                do_raw_shuffle_and_boot
                0x0000000000008df7                __bcopyxx_text_end = .
                0x0000000000000147                __bcopyxx_text_len = (ABSOLUTE (__bcopyxx_text_end) - ABSOLUTE (__bcopyxx_text_start))
                0x0000000000000052                __bcopyxx_text_dwords = ((__bcopyxx_text_len + 0x3) >> 0x2)

.bcopyxx.data   0x0000000000008e00       0x36
                0x0000000000008e00                __bcopyxx_data_start = .
 *(.bcopyxx.text)
                0x0000000000008e00                __bcopyxx_data_end = .
 .bcopyxx.data  0x0000000000008e00       0x36 isolinux.o
                0x0000000000000000                __bcopyxx_data_len = (ABSOLUTE (__bcopyxx_data_end) - ABSOLUTE (__bcopyxx_data_start))
                0x0000000000000000                __bcopyxx_data_dwords = ((__bcopyxx_data_len + 0x3) >> 0x2)
                0x0000000000008e36                __bcopyxx_end = .
                0x0000000000000186                __bcopyxx_len = (ABSOLUTE (__bcopyxx_end) - ABSOLUTE (__bcopyxx_start))
                0x0000000000000062                __bcopyxx_dwords = ((__bcopyxx_len + 0x3) >> 0x2)
                0x0000000000008e38                . = ALIGN (0x4)

.data16         0x0000000000008e40       0xaf
                0x0000000000008e40                __data16_start = .
 *(.data16)
 .data16        0x0000000000008e40       0xaf isolinux.o
                0x0000000000008e40                BaseStack
                0x0000000000008e50                __com32
                0x0000000000008e84                core_pm_hook
                0x0000000000008ebc                __jiffies
                0x0000000000008ec0                __ms_timer
                0x0000000000008eef                __data16_end = .
                0x00000000000000af                __data16_len = (ABSOLUTE (__data16_end) - ABSOLUTE (__data16_start))
                0x000000000000002c                __data16_dwords = ((__data16_len + 0x3) >> 0x2)
                0x0000000000008ef0                . = ALIGN (0x4)
                0x0000000000008ef0                __config_lma = ABSOLUTE (.)
                0x0000000000008ef0                . = (. + SIZEOF (.config))
                0x0000000000008ef0                . = ALIGN (0x4)
                0x0000000000008ef0                __replacestub_lma = ABSOLUTE (.)
                0x0000000000008ef0                . = (. + SIZEOF (.replacestub))
                0x0000000000008ef0                . = ALIGN (0x10)
                0x0000000000008ef0                __pm_code_lma = ABSOLUTE (.)
                0x0000000000008ef0                __high_clear_start = .
                0x0000000000009000                . = ALIGN (0x200)

.adv            0x0000000000009000      0x400
                0x0000000000009000                __adv_start = .
 *(.adv)
 .adv           0x0000000000009000      0x400 isolinux.o
                0x0000000000009400                __adv_end = .
                0x0000000000000400                __adv_len = (ABSOLUTE (__adv_end) - ABSOLUTE (__adv_start))
                0x0000000000000100                __adv_dwords = ((__adv_len + 0x3) >> 0x2)
                0x0000000000009400                . = ALIGN (0x4)

.uibss          0x0000000000009400      0x100
                0x0000000000009400                __uibss_start = .
 *(.uibss)
 .uibss         0x0000000000009400      0x100 isolinux.o
                0x0000000000009500                __uibss_end = .
                0x0000000000000100                __uibss_len = (ABSOLUTE (__uibss_end) - ABSOLUTE (__uibss_start))
                0x0000000000000040                __uibss_dwords = ((__uibss_len + 0x3) >> 0x2)
                0x0000000000009500                _end16 = .
                0x0000000000000001                __assert_end16 = ASSERT ((_end16 <= 0x10000), 64K overflow)
                0x0000000000010000                . = ALIGN (0x10000)

.xfer_buf       0x0000000000010000    0x10000
 *(.xfer_buf)
 .xfer_buf      0x0000000000010000    0x10000 isolinux.o
                0x0000000000010000                core_xfer_buf
                0x0000000000001000                xfer_buf_seg = (core_xfer_buf >> 0x4)
                0x0000000000020000                . = ALIGN (0x10)

.auxseg         0x0000000000020000        0x0
                0x0000000000020000                __auxseg_start = .
 *(.auxseg)
                0x0000000000020000                __auxseg_end = .
                0x0000000000000000                __auxseg_len = (ABSOLUTE (__auxseg_end) - ABSOLUTE (__auxseg_start))
                0x0000000000000000                __auxseg_dwords = ((__auxseg_len + 0x3) >> 0x2)
                0x0000000000002000                aux_seg = (__auxseg_start >> 0x4)

.lowmem         0x0000000000020000     0x2060
                0x0000000000020000                __lowmem_start = .
 *(.lowmem)
 .lowmem        0x0000000000020000       0x5c libcom32.a(diskio_bios.o)
 *fill*         0x000000000002005c        0x4 
 .lowmem        0x0000000000020060     0x2000 libcom32.a(font.o)
                0x0000000000020060                fontbuf
                0x0000000000022060                __lowmem_end = .
                0x0000000000002060                __lowmem_len = (ABSOLUTE (__lowmem_end) - ABSOLUTE (__lowmem_start))
                0x0000000000000818                __lowmem_dwords = ((__lowmem_len + 0x3) >> 0x2)
                0x0000000000022060                __high_clear_end = .
                0x0000000000019170                __high_clear_len = (ABSOLUTE (__high_clear_end) - ABSOLUTE (__high_clear_start))
                0x000000000000645c                __high_clear_dwords = ((__high_clear_len + 0x3) >> 0x2)
                0x0000000000022060                . = ALIGN (0x10)
                0x0000000000022060                __lowmem_heap = .
                0x0000000000100000                . = 0x100000
                0x0000000000100000                __pm_code_start = .
                0xfffffffffff08ef0                __vma_to_lma = ABSOLUTE ((__pm_code_lma - __pm_code_start))

.text           0x0000000000100000     0x7b51 load address 0x0000000000008ef0
 FILL mask 0x90909090
                0x0000000000100000                __text_start = .
 *(.text)
 .text          0x0000000000100000      0x12d isolinux.o
                0x0000000000100000                core_farcall
                0x0000000000100006                core_intcall
                0x00000000001000a6                core_cfarcall
 .text          0x000000000010012d       0x37 libcom32.a(writestr.o)
                0x000000000010012d                crlf
                0x0000000000100141                writestr
                0x0000000000100155                pm_writestr
 .text          0x0000000000100164       0x3c libcom32.a(idle.o)
                0x0000000000100164                reset_idle
                0x0000000000100170                __idle
 .text          0x00000000001001a0        0x8 libcom32.a(cleanup.o)
                0x00000000001001a0                cleanup_hardware
 .text          0x00000000001001a8      0x115 libcom32.a(init.o)
                0x00000000001001a8                scan_highmem_area
                0x0000000000100200                mem_init
 .text          0x00000000001002bd      0x2f5 libcom32.a(conio.o)
                0x00000000001002bd                loadkeys
                0x00000000001002ef                write_serial
                0x0000000000100340                pm_write_serial
                0x0000000000100346                serialcfg
                0x0000000000100388                pm_serialcfg
                0x0000000000100393                write_serial_str
                0x00000000001003a8                bios_pollchar
                0x000000000010041f                pollchar
                0x000000000010042a                pm_pollchar
                0x0000000000100446                bios_getchar
                0x0000000000100543                bios_shiftflags
                0x0000000000100583                kbd_shiftflags
                0x0000000000100597                getchar
                0x00000000001005a2                pm_getchar
 .text          0x00000000001005b2       0x61 libcom32.a(writehex.o)
                0x00000000001005e6                writehex2
                0x00000000001005ed                writehex4
                0x00000000001005f7                writehex8
                0x0000000000100601                pm_writehex2
                0x0000000000100607                pm_writehex4
                0x000000000010060d                pm_writehex8
 .text          0x0000000000100613      0x3af libcom32.a(load_env32.o)
                0x0000000000100628                init_module_subsystem
                0x000000000010064e                start_ldlinux
                0x00000000001007aa                load_env32
                0x00000000001008af                com32_cmdline
                0x00000000001008b5                create_args_and_load
                0x00000000001009a0                pm_env32_run
 .text          0x00000000001009c2       0x33 libcom32.a(getcwd.o)
                0x00000000001009c2                core_getcwd
 .text          0x00000000001009f5       0x64 libcom32.a(readdir.o)
                0x00000000001009f5                opendir
                0x0000000000100a2d                readdir
                0x0000000000100a51                closedir
 .text          0x0000000000100a59      0x520 libcom32.a(fs.o)
                0x0000000000100a59                alloc_inode
                0x0000000000100a81                put_inode
                0x0000000000100aab                _close_file
                0x0000000000100aca                open_config
                0x0000000000100b2f                mangle_name
                0x0000000000100b3a                pmapi_read_file
                0x0000000000100b8a                searchdir
                0x0000000000100ded                open_file
                0x0000000000100e60                close_file
                0x0000000000100e77                fs_uuid
                0x0000000000100e92                fs_init
 .text          0x0000000000100f79      0x479 libcom32.a(iso9660.o)
 .text          0x00000000001013f2      0x5e3 libcom32.a(susp_rr.o)
                0x000000000010144b                susp_rr_get_entries
                0x00000000001017f0                susp_rr_get_nm
                0x0000000000101872                susp_rr_check_signatures
 .text          0x00000000001019d5      0x1f7 libcom32.a(chdir.o)
                0x0000000000101a47                realpath
                0x0000000000101ace                pm_realpath
                0x0000000000101af2                chdir
 .text          0x0000000000101bcc       0x72 libcom32.a(diskio.o)
                0x0000000000101bcc                getoneblk
                0x0000000000101c0a                device_init
 .text          0x0000000000101c3e      0x716 libcom32.a(diskio_bios.o)
                0x000000000010212a                bios_disk_init
                0x0000000000102342                pm_fs_init
 .text          0x0000000000102354        0x4 libcom32.a(nonextextent.o)
                0x0000000000102354                no_next_extent
 .text          0x0000000000102358       0x55 libcom32.a(mangle.o)
                0x0000000000102358                generic_mangle_name
 .text          0x00000000001023ad       0xb2 libcom32.a(searchconfig.o)
                0x00000000001023ad                search_dirs
 .text          0x000000000010245f       0x16 libcom32.a(close.o)
                0x000000000010245f                generic_close_file
 .text          0x0000000000102475      0x1c1 libcom32.a(cache.o)
                0x0000000000102475                cache_init
                0x0000000000102510                cache_lock_block
                0x000000000010252e                _get_cache_block
                0x000000000010257b                get_cache
                0x00000000001025b7                cache_read
 .text          0x0000000000102636        0x0 libcom32.a(pmapi.o)
 .text          0x0000000000102636      0x15e libcom32.a(rllpack.o)
                0x0000000000102636                rllpack
                0x00000000001026f4                rllunpack
 .text          0x0000000000102794       0xeb libcom32.a(hello.o)
                0x00000000001027bb                myputchar
                0x00000000001027d6                myputs
                0x00000000001027ea                hello
                0x0000000000102802                hexdump
                0x000000000010284d                mp1
                0x0000000000102857                mp2
                0x0000000000102861                mp3
                0x000000000010286b                mp4
                0x0000000000102875                mp5
 .text          0x000000000010287f      0x446 libcom32.a(graphics.o)
                0x00000000001028d9                syslinux_force_text_mode
                0x0000000000102952                vgadisplayfile
                0x0000000000102c72                vgahidecursor
                0x0000000000102c86                vgashowcursor
                0x0000000000102c9a                using_vga
                0x0000000000102cb7                pm_using_vga
 .text          0x0000000000102cc5      0x1f6 libcom32.a(font.o)
                0x0000000000102cc5                bios_adjust_screen
                0x0000000000102d09                use_font
                0x0000000000102e08                loadfont
                0x0000000000102e97                adjust_screen
                0x0000000000102ea6                pm_adjust_screen
                0x0000000000102ea8                pm_userfont
 .text          0x0000000000102ebb      0xb72 libcom32.a(bios.o)
                0x00000000001031c7                bios_adv_init
                0x00000000001031e9                bios_adv_write
                0x0000000000103635                bios_init
                0x0000000000103a22                syslinux_register_bios
 .text          0x0000000000103a2d       0x52 libcom32.a(path.o)
                0x0000000000103a2d                path_add
 .text          0x0000000000103a7f        0x7 libcom32.a(init.o)
                0x0000000000103a7f                init
 .text          0x0000000000103a86        0x0 libcom32.a(lzo1x_f2.o)
 .text          0x0000000000103a86        0x0 libcom32.a(errno.o)
 .text          0x0000000000103a86      0x293 libcom32.a(serirq.o)
                0x0000000000103b7a                sirq_cleanup_nowipe
                0x0000000000103be3                sirq_cleanup
                0x0000000000103bf9                sirq_install
 .text          0x0000000000103d19      0x2d5 libcom32.a(malloc.o)
                0x0000000000103d54                bios_malloc
                0x0000000000103e0c                malloc
                0x0000000000103e18                lmalloc
                0x0000000000103e36                pmapi_lmalloc
                0x0000000000103e45                bios_realloc
                0x0000000000103fc5                realloc
                0x0000000000103fd1                zalloc
 .text          0x0000000000103fee      0x1db libcom32.a(free.o)
                0x00000000001040bc                bios_free
                0x00000000001040c4                free
                0x00000000001040f0                __inject_free_block
                0x000000000010416f                comboot_cleanup_lowmem
 .text          0x00000000001041c9      0x132 libcom32.a(sysappend.o)
                0x00000000001041c9                do_sysappend
                0x000000000010423f                sysappend_set_uuid
                0x000000000010429d                sysappend_set_fs_uuid
                0x00000000001042d8                print_sysappend
 .text          0x00000000001042fb       0x14 libcom32.a(kaboom.o)
                0x00000000001042fb                _kaboom
 .text          0x000000000010430f       0x3b libcom32.a(call16.o)
                0x000000000010430f                call16
 .text          0x000000000010434a      0x42d libcom32.a(dmi.o)
                0x000000000010442a                dmi_init
 .text          0x0000000000104777      0x200 libcom32.a(getfssec.o)
                0x0000000000104777                generic_getfssec
 .text          0x0000000000104977       0x14 libcom32.a(sem_asm.o)
                0x0000000000104977                sem_down
                0x0000000000104982                sem_up
 .text          0x000000000010498b       0xc9 libcom32.a(semaphore.o)
                0x000000000010498b                sem_init
                0x000000000010499b                __sem_down_slow
                0x0000000000104a25                __sem_up_slow
 .text          0x0000000000104a54        0x0 libcom32.a(root_thread.o)
 .text          0x0000000000104a54       0x84 libcom32.a(schedule.o)
                0x0000000000104a54                __schedule
                0x0000000000104acb                thread_yield
 .text          0x0000000000104ad8       0x3f libcom32.a(thread_asm.o)
                0x0000000000104ad8                __switch_to
                0x0000000000104b08                __start_thread
 .text          0x0000000000104b17       0x30 libcom32.a(exit_thread.o)
                0x0000000000104b17                __exit_thread
 .text          0x0000000000104b47       0x1a /opt/syslinux/bios/com32/lib/libcom32core.a(memcpy.o)
                0x0000000000104b47                memcpy
 .text          0x0000000000104b61       0x29 /opt/syslinux/bios/com32/lib/libcom32core.a(memset.o)
                0x0000000000104b61                memset
 .text          0x0000000000104b8a       0x1e /opt/syslinux/bios/com32/lib/libcom32core.a(memcmp.o)
                0x0000000000104b8a                memcmp
 .text          0x0000000000104ba8       0x20 /opt/syslinux/bios/com32/lib/libcom32core.a(printf.o)
                0x0000000000104ba8                printf
 .text          0x0000000000104bc8       0x27 /opt/syslinux/bios/com32/lib/libcom32core.a(strncmp.o)
                0x0000000000104bc8                strncmp
 .text          0x0000000000104bef       0x4d /opt/syslinux/bios/com32/lib/libcom32core.a(vfprintf.o)
                0x0000000000104bef                vfprintf
 .text          0x0000000000104c3c        0xf /opt/syslinux/bios/com32/lib/libcom32core.a(strlen.o)
                0x0000000000104c3c                strlen
 .text          0x0000000000104c4b      0x856 /opt/syslinux/bios/com32/lib/libcom32core.a(vsnprintf.o)
                0x0000000000104c4b                vsnprintf
 .text          0x00000000001054a1       0x25 /opt/syslinux/bios/com32/lib/libcom32core.a(snprintf.o)
                0x00000000001054a1                snprintf
 .text          0x00000000001054c6       0x17 /opt/syslinux/bios/com32/lib/libcom32core.a(stpcpy.o)
                0x00000000001054c6                stpcpy
 .text          0x00000000001054dd       0x20 /opt/syslinux/bios/com32/lib/libcom32core.a(strcmp.o)
                0x00000000001054dd                strcmp
 .text          0x00000000001054fd       0x38 /opt/syslinux/bios/com32/lib/libcom32core.a(strdup.o)
                0x00000000001054fd                strdup
 .text          0x0000000000105535       0x10 /opt/syslinux/bios/com32/lib/libcom32core.a(strcpy.o)
                0x0000000000105535                strcpy
 .text          0x0000000000105545       0x19 /opt/syslinux/bios/com32/lib/libcom32core.a(strncpy.o)
                0x0000000000105545                strncpy
 *fill*         0x000000000010555e        0x2 90909090
 .text          0x0000000000105560       0x2a /opt/syslinux/bios/com32/lib/libcom32core.a(setjmp.o)
                0x0000000000105560                setjmp
                0x0000000000105560                _setjmp
                0x0000000000105578                longjmp
 .text          0x000000000010558a       0x71 /opt/syslinux/bios/com32/lib/libcom32core.a(fopen.o)
                0x000000000010558a                fopen
 .text          0x00000000001055fb       0x63 /opt/syslinux/bios/com32/lib/libcom32core.a(fread.o)
                0x00000000001055fb                _fread
 .text          0x000000000010565e       0x24 /opt/syslinux/bios/com32/lib/libcom32core.a(fread2.o)
                0x000000000010565e                fread
 .text          0x0000000000105682       0x36 /opt/syslinux/bios/com32/lib/libcom32core.a(puts.o)
                0x0000000000105682                puts
 .text          0x00000000001056b8       0x16 /opt/syslinux/bios/com32/lib/libcom32core.a(strtoul.o)
                0x00000000001056b8                strtoul
 .text          0x00000000001056ce      0x1c6 /opt/syslinux/bios/com32/lib/libcom32core.a(strntoumax.o)
                0x00000000001056ce                strntoumax
 .text          0x0000000000105894       0x47 /opt/syslinux/bios/com32/lib/libcom32core.a(strcasecmp.o)
                0x0000000000105894                strcasecmp
 .text          0x00000000001058db       0x24 /opt/syslinux/bios/com32/lib/libcom32core.a(sprintf.o)
                0x00000000001058db                sprintf
 .text          0x00000000001058ff       0x2f /opt/syslinux/bios/com32/lib/libcom32core.a(strlcat.o)
                0x00000000001058ff                strlcat
 .text          0x000000000010592e       0x11 /opt/syslinux/bios/com32/lib/libcom32core.a(strchr.o)
                0x000000000010592e                strchr
 .text          0x000000000010593f       0x1f /opt/syslinux/bios/com32/lib/libcom32core.a(strlcpy.o)
                0x000000000010593f                strlcpy
 .text          0x000000000010595e       0x4e /opt/syslinux/bios/com32/lib/libcom32core.a(strncasecmp.o)
                0x000000000010595e                strncasecmp
 .text          0x00000000001059ac        0x0 /opt/syslinux/bios/com32/lib/libcom32core.a(ctypes.o)
 .text          0x00000000001059ac       0x31 /opt/syslinux/bios/com32/lib/libcom32core.a(fputs.o)
                0x00000000001059ac                fputs
 .text          0x00000000001059dd       0x24 /opt/syslinux/bios/com32/lib/libcom32core.a(fwrite2.o)
                0x00000000001059dd                fwrite
 .text          0x0000000000105a01       0x63 /opt/syslinux/bios/com32/lib/libcom32core.a(fwrite.o)
                0x0000000000105a01                _fwrite
 .text          0x0000000000105a64       0x31 /opt/syslinux/bios/com32/lib/libcom32core.a(fgetc.o)
                0x0000000000105a64                fgetc
 .text          0x0000000000105a95       0x14 /opt/syslinux/bios/com32/lib/libcom32core.a(fclose.o)
                0x0000000000105a95                fclose
 .text          0x0000000000105aa9       0x4a /opt/syslinux/bios/com32/lib/libcom32core.a(lmalloc.o)
                0x0000000000105aa9                lzalloc
                0x0000000000105ae0                lfree
 .text          0x0000000000105af3       0x1a /opt/syslinux/bios/com32/lib/libcom32core.a(err_read.o)
 .text          0x0000000000105b0d       0x1a /opt/syslinux/bios/com32/lib/libcom32core.a(err_write.o)
 .text          0x0000000000105b27        0x3 /opt/syslinux/bios/com32/lib/libcom32core.a(null_read.o)
 .text          0x0000000000105b2a       0x6c /opt/syslinux/bios/com32/lib/libcom32core.a(stdcon_write.o)
 .text          0x0000000000105b96       0x99 /opt/syslinux/bios/com32/lib/libcom32core.a(memscan.o)
                0x0000000000105b96                syslinux_memscan_add
                0x0000000000105bc2                syslinux_memscan_new
                0x0000000000105bf0                syslinux_scan_memory
 .text          0x0000000000105c2f       0x16 /opt/syslinux/bios/com32/lib/libcom32core.a(strrchr.o)
                0x0000000000105c2f                strrchr
 .text          0x0000000000105c45       0x2c /opt/syslinux/bios/com32/lib/libcom32core.a(strcat.o)
                0x0000000000105c45                strcat
 *fill*         0x0000000000105c71        0x3 90909090
 .text          0x0000000000105c74       0x11 /opt/syslinux/bios/com32/lib/libcom32core.a(__ashldi3.o)
                0x0000000000105c74                __ashldi3
 .text          0x0000000000105c85       0x2f /opt/syslinux/bios/com32/lib/libcom32core.a(__udivdi3.o)
                0x0000000000105c85                __udivdi3
 .text          0x0000000000105cb4        0x8 /opt/syslinux/bios/com32/lib/libcom32core.a(__negdi2.o)
                0x0000000000105cb4                __negdi2
 .text          0x0000000000105cbc       0x11 /opt/syslinux/bios/com32/lib/libcom32core.a(__ashrdi3.o)
                0x0000000000105cbc                __ashrdi3
 *fill*         0x0000000000105ccd        0x3 90909090
 .text          0x0000000000105cd0       0x11 /opt/syslinux/bios/com32/lib/libcom32core.a(__lshrdi3.o)
                0x0000000000105cd0                __lshrdi3
 *fill*         0x0000000000105ce1        0x3 90909090
 .text          0x0000000000105ce4       0x15 /opt/syslinux/bios/com32/lib/libcom32core.a(__muldi3.o)
                0x0000000000105ce4                __muldi3
 .text          0x0000000000105cf9       0xa0 /opt/syslinux/bios/com32/lib/libcom32core.a(__udivmoddi4.o)
                0x0000000000105cf9                __udivmoddi4
 .text          0x0000000000105d99       0x3a /opt/syslinux/bios/com32/lib/libcom32core.a(__umoddi3.o)
                0x0000000000105d99                __umoddi3
 .text          0x0000000000105dd3       0x5f /opt/syslinux/bios/com32/lib/libcom32core.a(__divdi3.o)
                0x0000000000105dd3                __divdi3
 .text          0x0000000000105e32       0x6c /opt/syslinux/bios/com32/lib/libcom32core.a(__moddi3.o)
                0x0000000000105e32                __moddi3
 .text          0x0000000000105e9e       0x1c /opt/syslinux/bios/com32/lib/libcom32core.a(debug.o)
                0x0000000000105e9e                syslinux_debug
 .text          0x0000000000105eba       0x20 /opt/syslinux/bios/com32/lib/libcom32core.a(intcall.o)
                0x0000000000105eba                __intcall
 .text          0x0000000000105eda       0x53 /opt/syslinux/bios/com32/lib/libcom32core.a(farcall.o)
                0x0000000000105eda                __farcall
 .text          0x0000000000105f2d       0x28 /opt/syslinux/bios/com32/lib/libcom32core.a(cfarcall.o)
                0x0000000000105f2d                __cfarcall
 .text          0x0000000000105f55        0x0 /opt/syslinux/bios/com32/lib/libcom32core.a(zeroregs.o)
 .text          0x0000000000105f55       0xad /opt/syslinux/bios/com32/lib/libcom32core.a(argv.o)
                0x0000000000105f55                __parse_argv
 .text          0x0000000000106002       0x4a /opt/syslinux/bios/com32/lib/libcom32core.a(sleep.o)
                0x0000000000106002                msleep
                0x0000000000106033                sleep
 .text          0x000000000010604c        0x0 /opt/syslinux/bios/com32/lib/libcom32core.a(fileinfo.o)
 .text          0x000000000010604c       0xec /opt/syslinux/bios/com32/lib/libcom32core.a(opendev.o)
                0x000000000010604c                opendev
 .text          0x0000000000106138       0x3f /opt/syslinux/bios/com32/lib/libcom32core.a(read.o)
                0x0000000000106138                read
 .text          0x0000000000106177       0x40 /opt/syslinux/bios/com32/lib/libcom32core.a(write.o)
                0x0000000000106177                write
 .text          0x00000000001061b7       0x1c /opt/syslinux/bios/com32/lib/libcom32core.a(ftell.o)
                0x00000000001061b7                ftell
 .text          0x00000000001061d3       0x86 /opt/syslinux/bios/com32/lib/libcom32core.a(close.o)
                0x00000000001061d3                close
 .text          0x0000000000106259       0x78 /opt/syslinux/bios/com32/lib/libcom32core.a(open.o)
                0x0000000000106259                open
 .text          0x00000000001062d1      0x116 /opt/syslinux/bios/com32/lib/libcom32core.a(fileread.o)
                0x00000000001062d1                __file_get_block
                0x000000000010631b                __file_read
 .text          0x00000000001063e7       0x1e /opt/syslinux/bios/com32/lib/libcom32core.a(fileclose.o)
                0x00000000001063e7                __file_close
 .text          0x0000000000106405       0x4e /opt/syslinux/bios/com32/lib/libcom32core.a(openmem.o)
                0x0000000000106405                openmem
 .text          0x0000000000106453       0x3a /opt/syslinux/bios/com32/lib/libcom32core.a(isatty.o)
                0x0000000000106453                isatty
 .text          0x000000000010648d       0x67 /opt/syslinux/bios/com32/lib/libcom32core.a(fstat.o)
                0x000000000010648d                fstat
 .text          0x00000000001064f4        0x0 /opt/syslinux/bios/com32/lib/libcom32core.a(dprintf.o)
 .text          0x00000000001064f4        0x0 /opt/syslinux/bios/com32/lib/libcom32core.a(vdprintf.o)
 .text          0x00000000001064f4       0x26 /opt/syslinux/bios/com32/lib/libcom32core.a(idle.o)
                0x00000000001064f4                syslinux_reset_idle
                0x0000000000106507                syslinux_idle
 .text          0x000000000010651a       0x68 /opt/syslinux/bios/com32/lib/libcom32core.a(exit.o)
                0x000000000010651a                _exit
                0x000000000010653c                exit
                0x0000000000106571                _Exit
 .text          0x0000000000106582      0x83f /opt/syslinux/bios/com32/lib/libcom32core.a(common.o)
                0x0000000000106582                findpath
                0x0000000000106617                image_load
                0x0000000000106649                image_unload
                0x0000000000106680                image_read
                0x00000000001066b8                image_skip
                0x000000000010670d                image_seek
                0x0000000000106731                modules_init
                0x0000000000106734                modules_term
                0x0000000000106735                module_alloc
                0x00000000001067ac                module_dep_alloc
                0x00000000001067d0                module_find
                0x000000000010681d                check_header_common
                0x0000000000106861                enforce_dependency
                0x00000000001068cf                clear_dependency
                0x0000000000106937                module_unloadable
                0x000000000010694a                _module_unload
                0x00000000001069c9                module_unload
                0x00000000001069fd                unload_modules_since
                0x0000000000106a96                module_find_symbol
                0x0000000000106c39                check_symbols
                0x0000000000106d33                global_find_symbol
 .text          0x0000000000106dc1      0x408 /opt/syslinux/bios/com32/lib/libcom32core.a(elf_module.o)
                0x0000000000106dc1                load_segments
                0x0000000000106ff0                perform_relocation
                0x00000000001070dc                resolve_symbols
 .text          0x00000000001071c9       0xde /opt/syslinux/bios/com32/lib/libcom32core.a(elfutils.o)
                0x00000000001071c9                elf_hash
                0x0000000000107214                elf_gnu_hash
                0x000000000010722e                elf_malloc
                0x0000000000107291                elf_free
 .text          0x00000000001072a7      0x16b /opt/syslinux/bios/com32/lib/libcom32core.a(exec.o)
                0x00000000001072a7                get_module_type
                0x00000000001072b5                spawn_load
                0x00000000001073ff                exec_term
 .text          0x0000000000107412      0x45c /opt/syslinux/bios/com32/lib/libcom32core.a(elf_module.o)
                0x0000000000107412                undefined_symbol
                0x000000000010742e                module_load
 .text          0x000000000010786e      0x183 libisolinux.a(rawcon.o)
                0x000000000010786e                writechr
                0x00000000001079e8                pm_writechr
 .text          0x00000000001079f1      0x101 libisolinux.a(localboot.o)
                0x00000000001079f1                local_boot
 .text          0x0000000000107af2       0x43 libisolinux.a(isolinux-c.o)
                0x0000000000107af2                get_derivative_info
 *(.text.*)
 .text.__x86.get_pc_thunk.bx
                0x0000000000107b35        0x4 /opt/syslinux/bios/com32/lib/libcom32core.a(printf.o)
                0x0000000000107b35                __x86.get_pc_thunk.bx
 .text.__x86.get_pc_thunk.di
                0x0000000000107b39        0x4 /opt/syslinux/bios/com32/lib/libcom32core.a(vsnprintf.o)
                0x0000000000107b39                __x86.get_pc_thunk.di
 .text.__x86.get_pc_thunk.si
                0x0000000000107b3d        0x4 /opt/syslinux/bios/com32/lib/libcom32core.a(strntoumax.o)
                0x0000000000107b3d                __x86.get_pc_thunk.si
 .text.__x86.get_pc_thunk.cx
                0x0000000000107b41        0x4 /opt/syslinux/bios/com32/lib/libcom32core.a(strcasecmp.o)
                0x0000000000107b41                __x86.get_pc_thunk.cx
 .text.__x86.get_pc_thunk.ax
                0x0000000000107b45        0x4 /opt/syslinux/bios/com32/lib/libcom32core.a(err_read.o)
                0x0000000000107b45                __x86.get_pc_thunk.ax
 .text.__x86.get_pc_thunk.dx
                0x0000000000107b49        0x4 /opt/syslinux/bios/com32/lib/libcom32core.a(memscan.o)
                0x0000000000107b49                __x86.get_pc_thunk.dx
 .text.__x86.get_pc_thunk.bp
                0x0000000000107b4d        0x4 /opt/syslinux/bios/com32/lib/libcom32core.a(memscan.o)
                0x0000000000107b4d                __x86.get_pc_thunk.bp
                0x0000000000107b51                __text_end = .

.plt            0x0000000000107b60        0x0 load address 0x0000000000010a50
 .plt           0x0000000000107b60        0x0 isolinux.o

.plt.got        0x0000000000107b58        0x0 load address 0x0000000000010a48
 .plt.got       0x0000000000107b58        0x0 isolinux.o

.rodata         0x0000000000107b60      0x82f load address 0x0000000000010a50
                0x0000000000107b60                __rodata_start = .
 *(.rodata)
 .rodata        0x0000000000107b60        0xc isolinux.o
                0x0000000000107b68                __syslinux_shuffler_size
 *fill*         0x0000000000107b6c       0x14 
 .rodata        0x0000000000107b80       0x48 libcom32.a(iso9660.o)
                0x0000000000107b80                iso_fs_ops
 *fill*         0x0000000000107bc8       0x18 
 .rodata        0x0000000000107be0       0x44 libcom32.a(pmapi.o)
                0x0000000000107be0                pm_api_vector
 .rodata        0x0000000000107c24        0x6 libcom32.a(sysappend.o)
 *fill*         0x0000000000107c2a       0x16 
 .rodata        0x0000000000107c40       0xc8 libcom32.a(dmi.o)
 .rodata        0x0000000000107d08       0x7d /opt/syslinux/bios/com32/lib/libcom32core.a(vsnprintf.o)
 *fill*         0x0000000000107d85       0x1b 
 .rodata        0x0000000000107da0      0x101 /opt/syslinux/bios/com32/lib/libcom32core.a(ctypes.o)
                0x0000000000107da0                __ctypes
 *fill*         0x0000000000107ea1        0x3 
 .rodata        0x0000000000107ea4       0x24 /opt/syslinux/bios/com32/lib/libcom32core.a(elf_module.o)
 *(.rodata.*)
 .rodata.str1.1
                0x0000000000107ec8        0x2 libcom32.a(conio.o)
 .rodata.str1.1
                0x0000000000107eca       0x7c libcom32.a(load_env32.o)
                                         0x90 (size before relaxing)
 .rodata.str1.1
                0x0000000000107f46       0x41 libcom32.a(fs.o)
                                         0x46 (size before relaxing)
 .rodata.str1.1
                0x0000000000107f87       0x61 libcom32.a(iso9660.o)
                                         0x95 (size before relaxing)
 .rodata.str1.1
                0x0000000000107fe8       0x26 libcom32.a(susp_rr.o)
                                         0x2b (size before relaxing)
 .rodata.str1.1
                0x000000000010800e        0x2 libcom32.a(chdir.o)
 .rodata.str1.1
                0x000000000010800e       0x5b libcom32.a(diskio_bios.o)
 .rodata.str1.1
                0x0000000000108069        0x7 libcom32.a(searchconfig.o)
                                          0xa (size before relaxing)
 .rodata.str1.1
                0x0000000000108070       0x42 libcom32.a(hello.o)
                                         0x44 (size before relaxing)
 .rodata.str1.1
                0x00000000001080b2        0x2 libcom32.a(font.o)
 .rodata.str1.1
                0x00000000001080b2       0xd2 libcom32.a(bios.o)
 .rodata.str1.1
                0x0000000000108184       0x30 libcom32.a(free.o)
 .rodata.str1.1
                0x00000000001081b4        0x5 libcom32.a(sysappend.o)
                                          0xc (size before relaxing)
 .rodata.str1.1
                0x00000000001081b9       0x9b libcom32.a(dmi.o)
 .rodata.str1.1
                0x0000000000108254        0x5 libcom32.a(root_thread.o)
 .rodata.str1.1
                0x0000000000108259        0x7 /opt/syslinux/bios/com32/lib/libcom32core.a(vsnprintf.o)
 .rodata.str1.1
                0x0000000000108260        0x2 /opt/syslinux/bios/com32/lib/libcom32core.a(puts.o)
 .rodata.str1.1
                0x0000000000108260       0x1a /opt/syslinux/bios/com32/lib/libcom32core.a(debug.o)
 .rodata.str1.1
                0x000000000010827a       0x1a /opt/syslinux/bios/com32/lib/libcom32core.a(common.o)
                                         0x24 (size before relaxing)
 .rodata.str1.1
                0x0000000000108294       0x11 /opt/syslinux/bios/com32/lib/libcom32core.a(elf_module.o)
 .rodata.str1.1
                0x00000000001082a5       0xcf /opt/syslinux/bios/com32/lib/libcom32core.a(elf_module.o)
 .rodata.str1.1
                0x0000000000108374       0x1b libisolinux.a(localboot.o)
                0x000000000010838f                __rodata_end = .

.gnu.version_d  0x0000000000108390        0x0 load address 0x0000000000011280
 .gnu.version_d
                0x0000000000108390        0x0 isolinux.o

.gnu.version    0x0000000000108390        0x0 load address 0x0000000000011280
 .gnu.version   0x0000000000108390        0x0 isolinux.o

.gnu.version_r  0x0000000000108390        0x0 load address 0x0000000000011280
 .gnu.version_r
                0x0000000000108390        0x0 isolinux.o

.ctors          0x000000000010838f        0x0 load address 0x000000000001127f
                0x000000000010838f                __ctors_start = .
 *(SORT(.ctors.*))
 *(.ctors)
                0x000000000010838f                __ctors_end = .

.dtors          0x000000000010838f        0x0 load address 0x000000000001127f
                0x000000000010838f                __dtors_start = .
 *(SORT(.dtors.*))
 *(.dtors)
                0x000000000010838f                __dtors_end = .

.dynsym         0x0000000000108390     0x1640 load address 0x0000000000011280
                0x0000000000108390                __dynsym_start = .
 *(.dynsym)
 .dynsym        0x0000000000108390     0x1640 isolinux.o
                0x00000000001099d0                __dynsym_end = .
                0x0000000000001640                __dynsym_len = (__dynsym_end - __dynsym_start)

.dynstr         0x00000000001099d0     0x108a load address 0x00000000000128c0
                0x00000000001099d0                __dynstr_start = .
 *(.dynstr)
 .dynstr        0x00000000001099d0     0x108a isolinux.o
                0x000000000010aa5a                __dynstr_end = .
                0x000000000000108a                __dynstr_len = (__dynstr_end - __dynstr_start)

.gnu.hash       0x000000000010aa5c      0xab8 load address 0x000000000001394c
                0x000000000010aa5c                __gnu_hash_start = .
 *(.gnu.hash)
 .gnu.hash      0x000000000010aa5c      0xab8 isolinux.o
                0x000000000010b514                __gnu_hash_end = .

.rel.dyn        0x000000000010b514     0x1608 load address 0x0000000000014404
 .rel.plt       0x000000000010b514        0x0 isolinux.o
 .rel.got       0x000000000010b514        0x8 isolinux.o
 .rel.bss       0x000000000010b51c        0x0 isolinux.o
 .rel.data.rel.ro
                0x000000000010b51c       0x10 isolinux.o
 .rel.ifunc     0x000000000010b52c        0x0 isolinux.o
 .rel.init      0x000000000010b52c       0x18 isolinux.o
 .rel.text16    0x000000000010b544       0x80 isolinux.o
 .rel.textnr    0x000000000010b5c4       0x88 isolinux.o
 .rel.bcopyxx.text
                0x000000000010b64c       0x28 isolinux.o
 .rel.bcopyxx.data
                0x000000000010b674        0x8 isolinux.o
 .rel.data16    0x000000000010b67c       0x38 isolinux.o
 .rel.rodata    0x000000000010b6b4      0x140 isolinux.o
 .rel.text      0x000000000010b7f4     0x10a8 isolinux.o
 .rel.data      0x000000000010c89c      0x210 isolinux.o
 .rel.prefix    0x000000000010caac       0x20 isolinux.o
 .rel.data.rel.ro.local
                0x000000000010cacc       0x28 isolinux.o
 .rel.data.rel.local
                0x000000000010caf4       0x10 isolinux.o
 .rel.data.rel  0x000000000010cb04       0x18 isolinux.o

.dynlink        0x000000000010cb1c        0x0 load address 0x0000000000015a0c
                0x000000000010cb1c                __dynlink_start = .
 *(.dynlink)
                0x000000000010cb1c                __dynlink_end = .

.got            0x000000000010cb1c       0x10 load address 0x0000000000015a0c
                0x000000000010cb1c                __got_start = .
 *(.got)
 .got           0x000000000010cb1c        0x4 isolinux.o
 *(.got.plt)
 .got.plt       0x000000000010cb20        0xc isolinux.o
                0x000000000010cb20                _GLOBAL_OFFSET_TABLE_
                0x000000000010cb2c                __got_end = .

.dynamic        0x000000000010cb2c       0x90 load address 0x0000000000015a1c
                0x000000000010cb2c                __dynamic_start = .
 *(.dynamic)
 .dynamic       0x000000000010cb2c       0x90 isolinux.o
                0x000000000010cb2c                _DYNAMIC
                0x000000000010cbbc                __dynamic_end = .

.data           0x000000000010cbc0      0x548 load address 0x0000000000015ab0
                0x000000000010cbc0                __data_start = .
 *(.data)
 .data          0x000000000010cbc0        0x8 isolinux.o
                0x000000000010cbc0                __syslinux_adv_ptr
                0x000000000010cbc4                __syslinux_adv_size
 .data          0x000000000010cbc8        0x0 libcom32.a(writestr.o)
 .data          0x000000000010cbc8        0x0 libcom32.a(idle.o)
 .data          0x000000000010cbc8        0x0 libcom32.a(cleanup.o)
 .data          0x000000000010cbc8        0x0 libcom32.a(init.o)
 .data          0x000000000010cbc8        0x6 libcom32.a(conio.o)
                0x000000000010cbc8                ScrollAttribute
                0x000000000010cbc9                DisplayMask
                0x000000000010cbca                DisplayCon
                0x000000000010cbcc                BaudDivisor
 .data          0x000000000010cbce        0x0 libcom32.a(writehex.o)
 *fill*         0x000000000010cbce       0x12 
 .data          0x000000000010cbe0      0x298 libcom32.a(load_env32.o)
                0x000000000010cc00                core_module
 .data          0x000000000010ce78        0x0 libcom32.a(getcwd.o)
 .data          0x000000000010ce78        0x0 libcom32.a(readdir.o)
 .data          0x000000000010ce78        0x2 libcom32.a(fs.o)
 *fill*         0x000000000010ce7a        0x2 
 .data          0x000000000010ce7c       0x24 libcom32.a(iso9660.o)
 .data          0x000000000010cea0        0x0 libcom32.a(susp_rr.o)
 .data          0x000000000010cea0        0x0 libcom32.a(chdir.o)
 .data          0x000000000010cea0        0x0 libcom32.a(diskio.o)
 .data          0x000000000010cea0        0x0 libcom32.a(diskio_bios.o)
 .data          0x000000000010cea0        0x0 libcom32.a(nonextextent.o)
 .data          0x000000000010cea0        0x0 libcom32.a(mangle.o)
 .data          0x000000000010cea0        0x0 libcom32.a(searchconfig.o)
 .data          0x000000000010cea0        0x0 libcom32.a(close.o)
 .data          0x000000000010cea0        0x0 libcom32.a(cache.o)
 .data          0x000000000010cea0        0x0 libcom32.a(pmapi.o)
 .data          0x000000000010cea0        0x0 libcom32.a(rllpack.o)
 .data          0x000000000010cea0        0xe libcom32.a(hello.o)
 *fill*         0x000000000010ceae        0x2 
 .data          0x000000000010ceb0       0x14 libcom32.a(graphics.o)
                0x000000000010cec2                VGAFontSize
 .data          0x000000000010cec4        0x4 libcom32.a(font.o)
                0x000000000010cec4                GXPixRows
                0x000000000010cec6                GXPixCols
 *fill*         0x000000000010cec8       0x18 
 .data          0x000000000010cee0       0xa4 libcom32.a(bios.o)
                0x000000000010cee0                bios_fw
                0x000000000010cf0c                bios_mem_ops
                0x000000000010cf24                bios_vesa_ops
                0x000000000010cf30                bios_adv_ops
                0x000000000010cf38                bios_input_ops
                0x000000000010cf60                bios_output_ops
 .data          0x000000000010cf84        0x8 libcom32.a(path.o)
                0x000000000010cf84                PATH
 .data          0x000000000010cf8c        0x0 libcom32.a(init.o)
 .data          0x000000000010cf8c        0x0 libcom32.a(lzo1x_f2.o)
 .data          0x000000000010cf8c        0x0 libcom32.a(errno.o)
 .data          0x000000000010cf8c        0x8 libcom32.a(serirq.o)
                0x000000000010cf8c                SerialTail
                0x000000000010cf90                SerialHead
 .data          0x000000000010cf94        0xc libcom32.a(malloc.o)
                0x000000000010cf94                __malloc_semaphore
 .data          0x000000000010cfa0        0x0 libcom32.a(free.o)
 .data          0x000000000010cfa0       0x6d libcom32.a(sysappend.o)
 .data          0x000000000010d00d        0x0 libcom32.a(kaboom.o)
 .data          0x000000000010d00d        0x0 libcom32.a(call16.o)
 *fill*         0x000000000010d00d        0x3 
 .data          0x000000000010d010       0x18 libcom32.a(dmi.o)
 .data          0x000000000010d028        0x0 libcom32.a(getfssec.o)
 .data          0x000000000010d028        0x0 libcom32.a(sem_asm.o)
 .data          0x000000000010d028        0x0 libcom32.a(semaphore.o)
 *fill*         0x000000000010d028       0x18 
 .data          0x000000000010d040       0x48 libcom32.a(root_thread.o)
                0x000000000010d040                __current
                0x000000000010d060                __root_thread
 .data          0x000000000010d088        0x0 libcom32.a(schedule.o)
 .data          0x000000000010d088        0x0 libcom32.a(thread_asm.o)
 .data          0x000000000010d088        0x0 libcom32.a(exit_thread.o)
 .data          0x000000000010d088        0x0 /opt/syslinux/bios/com32/lib/libcom32core.a(memcpy.o)
 .data          0x000000000010d088        0x0 /opt/syslinux/bios/com32/lib/libcom32core.a(memset.o)
 .data          0x000000000010d088        0x0 /opt/syslinux/bios/com32/lib/libcom32core.a(memcmp.o)
 .data          0x000000000010d088        0x0 /opt/syslinux/bios/com32/lib/libcom32core.a(printf.o)
 .data          0x000000000010d088        0x0 /opt/syslinux/bios/com32/lib/libcom32core.a(strncmp.o)
 .data          0x000000000010d088        0x0 /opt/syslinux/bios/com32/lib/libcom32core.a(vfprintf.o)
 .data          0x000000000010d088        0x0 /opt/syslinux/bios/com32/lib/libcom32core.a(strlen.o)
 .data          0x000000000010d088        0x0 /opt/syslinux/bios/com32/lib/libcom32core.a(vsnprintf.o)
 .data          0x000000000010d088        0x0 /opt/syslinux/bios/com32/lib/libcom32core.a(snprintf.o)
 .data          0x000000000010d088        0x0 /opt/syslinux/bios/com32/lib/libcom32core.a(stpcpy.o)
 .data          0x000000000010d088        0x0 /opt/syslinux/bios/com32/lib/libcom32core.a(strcmp.o)
 .data          0x000000000010d088        0x0 /opt/syslinux/bios/com32/lib/libcom32core.a(strdup.o)
 .data          0x000000000010d088        0x0 /opt/syslinux/bios/com32/lib/libcom32core.a(strcpy.o)
 .data          0x000000000010d088        0x0 /opt/syslinux/bios/com32/lib/libcom32core.a(strncpy.o)
 .data          0x000000000010d088        0x0 /opt/syslinux/bios/com32/lib/libcom32core.a(setjmp.o)
 .data          0x000000000010d088        0x0 /opt/syslinux/bios/com32/lib/libcom32core.a(fopen.o)
 .data          0x000000000010d088        0x0 /opt/syslinux/bios/com32/lib/libcom32core.a(fread.o)
 .data          0x000000000010d088        0x0 /opt/syslinux/bios/com32/lib/libcom32core.a(fread2.o)
 .data          0x000000000010d088        0x0 /opt/syslinux/bios/com32/lib/libcom32core.a(puts.o)
 .data          0x000000000010d088        0x0 /opt/syslinux/bios/com32/lib/libcom32core.a(strtoul.o)
 .data          0x000000000010d088        0x0 /opt/syslinux/bios/com32/lib/libcom32core.a(strntoumax.o)
 .data          0x000000000010d088        0x0 /opt/syslinux/bios/com32/lib/libcom32core.a(strcasecmp.o)
 .data          0x000000000010d088        0x0 /opt/syslinux/bios/com32/lib/libcom32core.a(sprintf.o)
 .data          0x000000000010d088        0x0 /opt/syslinux/bios/com32/lib/libcom32core.a(strlcat.o)
 .data          0x000000000010d088        0x0 /opt/syslinux/bios/com32/lib/libcom32core.a(strchr.o)
 .data          0x000000000010d088        0x0 /opt/syslinux/bios/com32/lib/libcom32core.a(strlcpy.o)
 .data          0x000000000010d088        0x0 /opt/syslinux/bios/com32/lib/libcom32core.a(strncasecmp.o)
 .data          0x000000000010d088        0x0 /opt/syslinux/bios/com32/lib/libcom32core.a(ctypes.o)
 .data          0x000000000010d088        0x0 /opt/syslinux/bios/com32/lib/libcom32core.a(fputs.o)
 .data          0x000000000010d088        0x0 /opt/syslinux/bios/com32/lib/libcom32core.a(fwrite2.o)
 .data          0x000000000010d088        0x0 /opt/syslinux/bios/com32/lib/libcom32core.a(fwrite.o)
 .data          0x000000000010d088        0x0 /opt/syslinux/bios/com32/lib/libcom32core.a(fgetc.o)
 .data          0x000000000010d088        0x0 /opt/syslinux/bios/com32/lib/libcom32core.a(fclose.o)
 .data          0x000000000010d088        0x0 /opt/syslinux/bios/com32/lib/libcom32core.a(lmalloc.o)
 .data          0x000000000010d088        0x0 /opt/syslinux/bios/com32/lib/libcom32core.a(err_read.o)
 .data          0x000000000010d088        0x0 /opt/syslinux/bios/com32/lib/libcom32core.a(err_write.o)
 .data          0x000000000010d088        0x0 /opt/syslinux/bios/com32/lib/libcom32core.a(null_read.o)
 .data          0x000000000010d088        0x0 /opt/syslinux/bios/com32/lib/libcom32core.a(stdcon_write.o)
 .data          0x000000000010d088        0x0 /opt/syslinux/bios/com32/lib/libcom32core.a(memscan.o)
 .data          0x000000000010d088        0x0 /opt/syslinux/bios/com32/lib/libcom32core.a(strrchr.o)
 .data          0x000000000010d088        0x0 /opt/syslinux/bios/com32/lib/libcom32core.a(strcat.o)
 .data          0x000000000010d088        0x0 /opt/syslinux/bios/com32/lib/libcom32core.a(__ashldi3.o)
 .data          0x000000000010d088        0x0 /opt/syslinux/bios/com32/lib/libcom32core.a(__udivdi3.o)
 .data          0x000000000010d088        0x0 /opt/syslinux/bios/com32/lib/libcom32core.a(__negdi2.o)
 .data          0x000000000010d088        0x0 /opt/syslinux/bios/com32/lib/libcom32core.a(__ashrdi3.o)
 .data          0x000000000010d088        0x0 /opt/syslinux/bios/com32/lib/libcom32core.a(__lshrdi3.o)
 .data          0x000000000010d088        0x0 /opt/syslinux/bios/com32/lib/libcom32core.a(__muldi3.o)
 .data          0x000000000010d088        0x0 /opt/syslinux/bios/com32/lib/libcom32core.a(__udivmoddi4.o)
 .data          0x000000000010d088        0x0 /opt/syslinux/bios/com32/lib/libcom32core.a(__umoddi3.o)
 .data          0x000000000010d088        0x0 /opt/syslinux/bios/com32/lib/libcom32core.a(__divdi3.o)
 .data          0x000000000010d088        0x0 /opt/syslinux/bios/com32/lib/libcom32core.a(__moddi3.o)
 .data          0x000000000010d088        0x0 /opt/syslinux/bios/com32/lib/libcom32core.a(debug.o)
 .data          0x000000000010d088        0x0 /opt/syslinux/bios/com32/lib/libcom32core.a(intcall.o)
 .data          0x000000000010d088        0x0 /opt/syslinux/bios/com32/lib/libcom32core.a(farcall.o)
 .data          0x000000000010d088        0x0 /opt/syslinux/bios/com32/lib/libcom32core.a(cfarcall.o)
 .data          0x000000000010d088        0x0 /opt/syslinux/bios/com32/lib/libcom32core.a(zeroregs.o)
 .data          0x000000000010d088        0x0 /opt/syslinux/bios/com32/lib/libcom32core.a(argv.o)
 .data          0x000000000010d088        0x0 /opt/syslinux/bios/com32/lib/libcom32core.a(sleep.o)
 .data          0x000000000010d088        0x0 /opt/syslinux/bios/com32/lib/libcom32core.a(fileinfo.o)
 .data          0x000000000010d088        0x0 /opt/syslinux/bios/com32/lib/libcom32core.a(opendev.o)
 .data          0x000000000010d088        0x0 /opt/syslinux/bios/com32/lib/libcom32core.a(read.o)
 .data          0x000000000010d088        0x0 /opt/syslinux/bios/com32/lib/libcom32core.a(write.o)
 .data          0x000000000010d088        0x0 /opt/syslinux/bios/com32/lib/libcom32core.a(ftell.o)
 .data          0x000000000010d088        0x0 /opt/syslinux/bios/com32/lib/libcom32core.a(close.o)
 .data          0x000000000010d088        0x0 /opt/syslinux/bios/com32/lib/libcom32core.a(open.o)
 .data          0x000000000010d088        0x0 /opt/syslinux/bios/com32/lib/libcom32core.a(fileread.o)
 .data          0x000000000010d088        0x0 /opt/syslinux/bios/com32/lib/libcom32core.a(fileclose.o)
 .data          0x000000000010d088        0x0 /opt/syslinux/bios/com32/lib/libcom32core.a(openmem.o)
 .data          0x000000000010d088        0x0 /opt/syslinux/bios/com32/lib/libcom32core.a(isatty.o)
 .data          0x000000000010d088        0x0 /opt/syslinux/bios/com32/lib/libcom32core.a(fstat.o)
 .data          0x000000000010d088        0x0 /opt/syslinux/bios/com32/lib/libcom32core.a(dprintf.o)
 .data          0x000000000010d088        0x0 /opt/syslinux/bios/com32/lib/libcom32core.a(vdprintf.o)
 .data          0x000000000010d088        0x0 /opt/syslinux/bios/com32/lib/libcom32core.a(idle.o)
 .data          0x000000000010d088        0x0 /opt/syslinux/bios/com32/lib/libcom32core.a(exit.o)
 .data          0x000000000010d088        0x0 /opt/syslinux/bios/com32/lib/libcom32core.a(common.o)
 .data          0x000000000010d088        0x0 /opt/syslinux/bios/com32/lib/libcom32core.a(elf_module.o)
 .data          0x000000000010d088        0x0 /opt/syslinux/bios/com32/lib/libcom32core.a(elfutils.o)
 .data          0x000000000010d088        0x0 /opt/syslinux/bios/com32/lib/libcom32core.a(exec.o)
 .data          0x000000000010d088        0x0 /opt/syslinux/bios/com32/lib/libcom32core.a(elf_module.o)
 .data          0x000000000010d088        0x0 libisolinux.a(rawcon.o)
 .data          0x000000000010d088        0x0 libisolinux.a(localboot.o)
 .data          0x000000000010d088        0x0 libisolinux.a(isolinux-c.o)
 *(.data.*)
 .data.rel.ro   0x000000000010d088        0x0 isolinux.o
 .data.rel.ro.local
                0x000000000010d088       0x14 /opt/syslinux/bios/com32/lib/libcom32core.a(err_read.o)
                0x000000000010d088                dev_error_r
 .data.rel.ro.local
                0x000000000010d09c       0x18 /opt/syslinux/bios/com32/lib/libcom32core.a(err_write.o)
                0x000000000010d09c                dev_error_w
 .data.rel.ro.local
                0x000000000010d0b4       0x14 /opt/syslinux/bios/com32/lib/libcom32core.a(null_read.o)
                0x000000000010d0b4                dev_null_r
 .data.rel.ro.local
                0x000000000010d0c8       0x18 /opt/syslinux/bios/com32/lib/libcom32core.a(stdcon_write.o)
                0x000000000010d0c8                dev_stdcon_w
 .data.rel.local
                0x000000000010d0e0        0x8 /opt/syslinux/bios/com32/lib/libcom32core.a(memscan.o)
 .data.rel      0x000000000010d0e8        0x4 /opt/syslinux/bios/com32/lib/libcom32core.a(argv.o)
                0x000000000010d0e8                __mem_end
 .data.rel.ro   0x000000000010d0ec       0x14 /opt/syslinux/bios/com32/lib/libcom32core.a(open.o)
                0x000000000010d0ec                __file_dev
 .data.rel      0x000000000010d100        0x8 /opt/syslinux/bios/com32/lib/libcom32core.a(common.o)
                0x000000000010d100                modules_head
                0x000000000010d108                __data_end = .
                0x000000000010d108                __pm_code_end = .
                0x000000000000d108                __pm_code_len = (ABSOLUTE (__pm_code_end) - ABSOLUTE (__pm_code_start))
                0x0000000000003442                __pm_code_dwords = ((__pm_code_len + 0x3) >> 0x2)
                0x000000000010d180                . = ALIGN (0x80)
                0x000000000010d180                __bss_vma = .
                0x000000000010d180                __bss_lma = ABSOLUTE (.)

.bss            0x000000000010d180   0x203dd8
                0x000000000010d180                __bss_start = .
 *(.bss)
 .bss           0x000000000010d180        0x0 libcom32.a(writestr.o)
 .bss           0x000000000010d180        0x8 libcom32.a(idle.o)
                0x000000000010d180                NoHalt
 .bss           0x000000000010d188        0x0 libcom32.a(cleanup.o)
 .bss           0x000000000010d188        0x0 libcom32.a(init.o)
 .bss           0x000000000010d188        0x6 libcom32.a(conio.o)
                0x000000000010d188                FlowOutput
                0x000000000010d189                FlowIgnore
                0x000000000010d18a                FlowInput
                0x000000000010d18c                SerialPort
 .bss           0x000000000010d18e        0x0 libcom32.a(writehex.o)
 *fill*         0x000000000010d18e        0x2 
 .bss           0x000000000010d190       0x2c libcom32.a(load_env32.o)
 .bss           0x000000000010d1bc        0x0 libcom32.a(getcwd.o)
 *fill*         0x000000000010d1bc        0x4 
 .bss           0x000000000010d1c0      0x10c libcom32.a(readdir.o)
 *fill*         0x000000000010d2cc       0x14 
 .bss           0x000000000010d2e0      0x144 libcom32.a(fs.o)
                0x000000000010d2e0                this_fs
 .bss           0x000000000010d424        0x0 libcom32.a(iso9660.o)
 .bss           0x000000000010d424        0x0 libcom32.a(susp_rr.o)
 .bss           0x000000000010d424        0x0 libcom32.a(chdir.o)
 .bss           0x000000000010d424       0x18 libcom32.a(diskio.o)
 *fill*         0x000000000010d43c        0x4 
 .bss           0x000000000010d440       0x50 libcom32.a(diskio_bios.o)
 .bss           0x000000000010d490        0x0 libcom32.a(nonextextent.o)
 .bss           0x000000000010d490        0x0 libcom32.a(mangle.o)
 .bss           0x000000000010d490        0x0 libcom32.a(searchconfig.o)
 .bss           0x000000000010d490        0x0 libcom32.a(close.o)
 .bss           0x000000000010d490        0x0 libcom32.a(cache.o)
 .bss           0x000000000010d490        0x0 libcom32.a(pmapi.o)
 .bss           0x000000000010d490        0x0 libcom32.a(rllpack.o)
 .bss           0x000000000010d490        0x0 libcom32.a(hello.o)
 *fill*         0x000000000010d490       0x10 
 .bss           0x000000000010d4a0      0x470 libcom32.a(graphics.o)
                0x000000000010d4a0                UsingVGA
 .bss           0x000000000010d910        0x1 libcom32.a(font.o)
                0x000000000010d910                UserFont
 *fill*         0x000000000010d911        0xf 
 .bss           0x000000000010d920      0x28e libcom32.a(bios.o)
                0x000000000010d920                firmware
 .bss           0x000000000010dbae        0x0 libcom32.a(path.o)
 .bss           0x000000000010dbae        0x0 libcom32.a(init.o)
 .bss           0x000000000010dbae        0x0 libcom32.a(lzo1x_f2.o)
 .bss           0x000000000010dbae        0x0 libcom32.a(errno.o)
 *fill*         0x000000000010dbae       0x12 
 .bss           0x000000000010dbc0     0x1060 libcom32.a(serirq.o)
 .bss           0x000000000010ec20        0x0 libcom32.a(malloc.o)
 .bss           0x000000000010ec20        0x0 libcom32.a(free.o)
 .bss           0x000000000010ec20        0x0 libcom32.a(sysappend.o)
 .bss           0x000000000010ec20        0x0 libcom32.a(kaboom.o)
 .bss           0x000000000010ec20        0x0 libcom32.a(call16.o)
 .bss           0x000000000010ec20        0x4 libcom32.a(dmi.o)
 .bss           0x000000000010ec24        0x0 libcom32.a(getfssec.o)
 .bss           0x000000000010ec24        0x0 libcom32.a(sem_asm.o)
 .bss           0x000000000010ec24        0x0 libcom32.a(semaphore.o)
 .bss           0x000000000010ec24        0x0 libcom32.a(root_thread.o)
 .bss           0x000000000010ec24        0x1 libcom32.a(schedule.o)
 .bss           0x000000000010ec25        0x0 libcom32.a(thread_asm.o)
 .bss           0x000000000010ec25        0x0 libcom32.a(exit_thread.o)
 .bss           0x000000000010ec25        0x0 /opt/syslinux/bios/com32/lib/libcom32core.a(memcpy.o)
 .bss           0x000000000010ec25        0x0 /opt/syslinux/bios/com32/lib/libcom32core.a(memset.o)
 .bss           0x000000000010ec25        0x0 /opt/syslinux/bios/com32/lib/libcom32core.a(memcmp.o)
 .bss           0x000000000010ec25        0x0 /opt/syslinux/bios/com32/lib/libcom32core.a(printf.o)
 .bss           0x000000000010ec25        0x0 /opt/syslinux/bios/com32/lib/libcom32core.a(strncmp.o)
 .bss           0x000000000010ec25        0x0 /opt/syslinux/bios/com32/lib/libcom32core.a(vfprintf.o)
 .bss           0x000000000010ec25        0x0 /opt/syslinux/bios/com32/lib/libcom32core.a(strlen.o)
 .bss           0x000000000010ec25        0x0 /opt/syslinux/bios/com32/lib/libcom32core.a(vsnprintf.o)
 .bss           0x000000000010ec25        0x0 /opt/syslinux/bios/com32/lib/libcom32core.a(snprintf.o)
 .bss           0x000000000010ec25        0x0 /opt/syslinux/bios/com32/lib/libcom32core.a(stpcpy.o)
 .bss           0x000000000010ec25        0x0 /opt/syslinux/bios/com32/lib/libcom32core.a(strcmp.o)
 .bss           0x000000000010ec25        0x0 /opt/syslinux/bios/com32/lib/libcom32core.a(strdup.o)
 .bss           0x000000000010ec25        0x0 /opt/syslinux/bios/com32/lib/libcom32core.a(strcpy.o)
 .bss           0x000000000010ec25        0x0 /opt/syslinux/bios/com32/lib/libcom32core.a(strncpy.o)
 .bss           0x000000000010ec25        0x0 /opt/syslinux/bios/com32/lib/libcom32core.a(setjmp.o)
 .bss           0x000000000010ec25        0x0 /opt/syslinux/bios/com32/lib/libcom32core.a(fopen.o)
 .bss           0x000000000010ec25        0x0 /opt/syslinux/bios/com32/lib/libcom32core.a(fread.o)
 .bss           0x000000000010ec25        0x0 /opt/syslinux/bios/com32/lib/libcom32core.a(fread2.o)
 .bss           0x000000000010ec25        0x0 /opt/syslinux/bios/com32/lib/libcom32core.a(puts.o)
 .bss           0x000000000010ec25        0x0 /opt/syslinux/bios/com32/lib/libcom32core.a(strtoul.o)
 .bss           0x000000000010ec25        0x0 /opt/syslinux/bios/com32/lib/libcom32core.a(strntoumax.o)
 .bss           0x000000000010ec25        0x0 /opt/syslinux/bios/com32/lib/libcom32core.a(strcasecmp.o)
 .bss           0x000000000010ec25        0x0 /opt/syslinux/bios/com32/lib/libcom32core.a(sprintf.o)
 .bss           0x000000000010ec25        0x0 /opt/syslinux/bios/com32/lib/libcom32core.a(strlcat.o)
 .bss           0x000000000010ec25        0x0 /opt/syslinux/bios/com32/lib/libcom32core.a(strchr.o)
 .bss           0x000000000010ec25        0x0 /opt/syslinux/bios/com32/lib/libcom32core.a(strlcpy.o)
 .bss           0x000000000010ec25        0x0 /opt/syslinux/bios/com32/lib/libcom32core.a(strncasecmp.o)
 .bss           0x000000000010ec25        0x0 /opt/syslinux/bios/com32/lib/libcom32core.a(ctypes.o)
 .bss           0x000000000010ec25        0x0 /opt/syslinux/bios/com32/lib/libcom32core.a(fputs.o)
 .bss           0x000000000010ec25        0x0 /opt/syslinux/bios/com32/lib/libcom32core.a(fwrite2.o)
 .bss           0x000000000010ec25        0x0 /opt/syslinux/bios/com32/lib/libcom32core.a(fwrite.o)
 .bss           0x000000000010ec25        0x0 /opt/syslinux/bios/com32/lib/libcom32core.a(fgetc.o)
 .bss           0x000000000010ec25        0x0 /opt/syslinux/bios/com32/lib/libcom32core.a(fclose.o)
 .bss           0x000000000010ec25        0x0 /opt/syslinux/bios/com32/lib/libcom32core.a(lmalloc.o)
 .bss           0x000000000010ec25        0x0 /opt/syslinux/bios/com32/lib/libcom32core.a(err_read.o)
 .bss           0x000000000010ec25        0x0 /opt/syslinux/bios/com32/lib/libcom32core.a(err_write.o)
 .bss           0x000000000010ec25        0x0 /opt/syslinux/bios/com32/lib/libcom32core.a(null_read.o)
 .bss           0x000000000010ec25        0x0 /opt/syslinux/bios/com32/lib/libcom32core.a(stdcon_write.o)
 .bss           0x000000000010ec25        0x0 /opt/syslinux/bios/com32/lib/libcom32core.a(memscan.o)
 .bss           0x000000000010ec25        0x0 /opt/syslinux/bios/com32/lib/libcom32core.a(strrchr.o)
 .bss           0x000000000010ec25        0x0 /opt/syslinux/bios/com32/lib/libcom32core.a(strcat.o)
 .bss           0x000000000010ec25        0x0 /opt/syslinux/bios/com32/lib/libcom32core.a(__ashldi3.o)
 .bss           0x000000000010ec25        0x0 /opt/syslinux/bios/com32/lib/libcom32core.a(__udivdi3.o)
 .bss           0x000000000010ec25        0x0 /opt/syslinux/bios/com32/lib/libcom32core.a(__negdi2.o)
 .bss           0x000000000010ec25        0x0 /opt/syslinux/bios/com32/lib/libcom32core.a(__ashrdi3.o)
 .bss           0x000000000010ec25        0x0 /opt/syslinux/bios/com32/lib/libcom32core.a(__lshrdi3.o)
 .bss           0x000000000010ec25        0x0 /opt/syslinux/bios/com32/lib/libcom32core.a(__muldi3.o)
 .bss           0x000000000010ec25        0x0 /opt/syslinux/bios/com32/lib/libcom32core.a(__udivmoddi4.o)
 .bss           0x000000000010ec25        0x0 /opt/syslinux/bios/com32/lib/libcom32core.a(__umoddi3.o)
 .bss           0x000000000010ec25        0x0 /opt/syslinux/bios/com32/lib/libcom32core.a(__divdi3.o)
 .bss           0x000000000010ec25        0x0 /opt/syslinux/bios/com32/lib/libcom32core.a(__moddi3.o)
 .bss           0x000000000010ec25        0x0 /opt/syslinux/bios/com32/lib/libcom32core.a(debug.o)
 .bss           0x000000000010ec25        0x0 /opt/syslinux/bios/com32/lib/libcom32core.a(intcall.o)
 .bss           0x000000000010ec25        0x0 /opt/syslinux/bios/com32/lib/libcom32core.a(farcall.o)
 .bss           0x000000000010ec25        0x0 /opt/syslinux/bios/com32/lib/libcom32core.a(cfarcall.o)
 .bss           0x000000000010ec25        0x0 /opt/syslinux/bios/com32/lib/libcom32core.a(zeroregs.o)
 .bss           0x000000000010ec25        0x0 /opt/syslinux/bios/com32/lib/libcom32core.a(argv.o)
 .bss           0x000000000010ec25        0x0 /opt/syslinux/bios/com32/lib/libcom32core.a(sleep.o)
 .bss           0x000000000010ec25        0x0 /opt/syslinux/bios/com32/lib/libcom32core.a(fileinfo.o)
 .bss           0x000000000010ec25        0x0 /opt/syslinux/bios/com32/lib/libcom32core.a(opendev.o)
 .bss           0x000000000010ec25        0x0 /opt/syslinux/bios/com32/lib/libcom32core.a(read.o)
 .bss           0x000000000010ec25        0x0 /opt/syslinux/bios/com32/lib/libcom32core.a(write.o)
 .bss           0x000000000010ec25        0x0 /opt/syslinux/bios/com32/lib/libcom32core.a(ftell.o)
 .bss           0x000000000010ec25        0x0 /opt/syslinux/bios/com32/lib/libcom32core.a(close.o)
 .bss           0x000000000010ec25        0x0 /opt/syslinux/bios/com32/lib/libcom32core.a(open.o)
 .bss           0x000000000010ec25        0x0 /opt/syslinux/bios/com32/lib/libcom32core.a(fileread.o)
 .bss           0x000000000010ec25        0x0 /opt/syslinux/bios/com32/lib/libcom32core.a(fileclose.o)
 .bss           0x000000000010ec25        0x0 /opt/syslinux/bios/com32/lib/libcom32core.a(openmem.o)
 .bss           0x000000000010ec25        0x0 /opt/syslinux/bios/com32/lib/libcom32core.a(isatty.o)
 .bss           0x000000000010ec25        0x0 /opt/syslinux/bios/com32/lib/libcom32core.a(fstat.o)
 .bss           0x000000000010ec25        0x0 /opt/syslinux/bios/com32/lib/libcom32core.a(dprintf.o)
 .bss           0x000000000010ec25        0x0 /opt/syslinux/bios/com32/lib/libcom32core.a(vdprintf.o)
 .bss           0x000000000010ec25        0x0 /opt/syslinux/bios/com32/lib/libcom32core.a(idle.o)
 .bss           0x000000000010ec25        0x0 /opt/syslinux/bios/com32/lib/libcom32core.a(exit.o)
 .bss           0x000000000010ec25        0x0 /opt/syslinux/bios/com32/lib/libcom32core.a(common.o)
 .bss           0x000000000010ec25        0x0 /opt/syslinux/bios/com32/lib/libcom32core.a(elf_module.o)
 .bss           0x000000000010ec25        0x0 /opt/syslinux/bios/com32/lib/libcom32core.a(elfutils.o)
 *fill*         0x000000000010ec25        0x3 
 .bss           0x000000000010ec28        0x4 /opt/syslinux/bios/com32/lib/libcom32core.a(exec.o)
                0x000000000010ec28                __syslinux_current
 .bss           0x000000000010ec2c        0x0 /opt/syslinux/bios/com32/lib/libcom32core.a(elf_module.o)
 .bss           0x000000000010ec2c        0x0 libisolinux.a(rawcon.o)
 .bss           0x000000000010ec2c        0x0 libisolinux.a(localboot.o)
 .bss           0x000000000010ec2c        0x0 libisolinux.a(isolinux-c.o)
 *(.bss.*)
 *(COMMON)
 COMMON         0x000000000010ec2c        0x4 libcom32.a(idle.o)
                0x000000000010ec2c                idle_hook_func
 *fill*         0x000000000010ec30       0x10 
 COMMON         0x000000000010ec40       0x90 libcom32.a(init.o)
                0x000000000010ec40                bios_free_mem
                0x000000000010ec60                __core_malloc_head
 COMMON         0x000000000010ecd0        0x4 libcom32.a(conio.o)
                0x000000000010ecd0                _screensize
                0x000000000010ecd2                _cursor
 *fill*         0x000000000010ecd4        0xc 
 COMMON         0x000000000010ece0      0x600 libcom32.a(fs.o)
                0x000000000010ece0                files
 COMMON         0x000000000010f2e0      0x200 libcom32.a(searchconfig.o)
                0x000000000010f2e0                ConfigName
                0x000000000010f3e0                config_cwd
 COMMON         0x000000000010f4e0      0x224 libcom32.a(graphics.o)
                0x000000000010f4e0                VGAPos
                0x000000000010f500                VGAFileBuf
                0x000000000010f600                VGAFileMBuf
                0x000000000010f700                VGAFilePtr
 *fill*         0x000000000010f704       0x1c 
 COMMON         0x000000000010f720      0x103 libcom32.a(bios.o)
                0x000000000010f720                KbdMap
                0x000000000010f820                PXERetry
                0x000000000010f822                KbdFlags
 *fill*         0x000000000010f823        0x1 
 COMMON         0x000000000010f824        0x4 libcom32.a(errno.o)
                0x000000000010f824                errno
 *fill*         0x000000000010f828       0x18 
 COMMON         0x000000000010f840       0x6c libcom32.a(sysappend.o)
                0x000000000010f840                SysAppends
                0x000000000010f860                sysappend_strings
 *fill*         0x000000000010f8ac       0x14 
 COMMON         0x000000000010f8c0       0x2c libcom32.a(call16.o)
                0x000000000010f8c0                zero_regs
 COMMON         0x000000000010f8ec        0x4 libcom32.a(schedule.o)
                0x000000000010f8ec                sched_hook_func
 *fill*         0x000000000010f8f0       0x10 
 COMMON         0x000000000010f900       0x2c /opt/syslinux/bios/com32/lib/libcom32core.a(zeroregs.o)
                0x000000000010f900                __com32_zero_regs
 *fill*         0x000000000010f92c       0x14 
 COMMON         0x000000000010f940   0x201600 /opt/syslinux/bios/com32/lib/libcom32core.a(fileinfo.o)
                0x000000000010f940                __file_info
 COMMON         0x0000000000310f40       0x18 /opt/syslinux/bios/com32/lib/libcom32core.a(exec.o)
                0x0000000000310f40                __process_exit_jmp
                0x0000000000310f58                __bss_end = .
                0x0000000000203dd8                __bss_len = (ABSOLUTE (__bss_end) - ABSOLUTE (__bss_start))
                0x0000000000080f76                __bss_dwords = ((__bss_len + 0x3) >> 0x2)
                0x0000000000310f58                __hugebss_vma = .
                0x0000000000310f58                __hugebss_lma = ABSOLUTE (.)

.savedata       0x0000000000310f60        0x0
 .savedata      0x0000000000310f60        0x0 isolinux.o

.dynbss         0x0000000000310f58        0x0
 .dynbss        0x0000000000310f58        0x0 isolinux.o

.hugebss        0x0000000000310f58        0x0
                0x0000000000310f58                __hugebss_start = .
 *(.hugebss)
 *(.hugebss.*)
                0x0000000000310f58                __hugebss_end = .
                0x0000000000000000                __hugebss_len = (ABSOLUTE (__hugebss_end) - ABSOLUTE (__hugebss_start))
                0x0000000000000000                __hugebss_dwords = ((__hugebss_len + 0x3) >> 0x2)
                0x0000000000310f58                __stack_vma = .
                0x0000000000310f58                __stack_lma = ABSOLUTE (.)

.stack          0x0000000000311000    0x10000 load address 0x0000000000310f58
                0x0000000000311000                __stack_start = .
 *(.stack)
 .stack         0x0000000000311000    0x10000 isolinux.o
                0x0000000000321000                __stack_end = .
                0x0000000000010000                __stack_len = (ABSOLUTE (__stack_end) - ABSOLUTE (__stack_start))
                0x0000000000004000                __stack_dwords = ((__stack_len + 0x3) >> 0x2)
                0x0000000000321000                _end = .
                0x0000000000321000                . = ALIGN (0x1000)
                0x0000000000321000                free_high_memory = .

/DISCARD/
 *(.eh_frame)
 *(.interp)
LOAD isolinux.o
START GROUP
LOAD libcom32.a
LOAD /opt/syslinux/bios/com32/lib/libcom32core.a
LOAD libisolinux.a
END GROUP
OUTPUT(isolinux.elf elf32-i386)

.debug_aranges  0x0000000000000000      0xfc8
 .debug_aranges
                0x0000000000000000       0x48 isolinux.o
 .debug_aranges
                0x0000000000000048       0x20 libcom32.a(writestr.o)
 .debug_aranges
                0x0000000000000068       0x20 libcom32.a(idle.o)
 .debug_aranges
                0x0000000000000088       0x20 libcom32.a(cleanup.o)
 .debug_aranges
                0x00000000000000a8       0x20 libcom32.a(init.o)
 .debug_aranges
                0x00000000000000c8       0x20 libcom32.a(conio.o)
 .debug_aranges
                0x00000000000000e8       0x20 libcom32.a(writehex.o)
 .debug_aranges
                0x0000000000000108       0x20 libcom32.a(load_env32.o)
 .debug_aranges
                0x0000000000000128       0x20 libcom32.a(getcwd.o)
 .debug_aranges
                0x0000000000000148       0x20 libcom32.a(readdir.o)
 .debug_aranges
                0x0000000000000168       0x20 libcom32.a(fs.o)
 .debug_aranges
                0x0000000000000188       0x20 libcom32.a(iso9660.o)
 .debug_aranges
                0x00000000000001a8       0x20 libcom32.a(susp_rr.o)
 .debug_aranges
                0x00000000000001c8       0x20 libcom32.a(chdir.o)
 .debug_aranges
                0x00000000000001e8       0x20 libcom32.a(diskio.o)
 .debug_aranges
                0x0000000000000208       0x20 libcom32.a(diskio_bios.o)
 .debug_aranges
                0x0000000000000228       0x20 libcom32.a(nonextextent.o)
 .debug_aranges
                0x0000000000000248       0x20 libcom32.a(mangle.o)
 .debug_aranges
                0x0000000000000268       0x20 libcom32.a(searchconfig.o)
 .debug_aranges
                0x0000000000000288       0x20 libcom32.a(close.o)
 .debug_aranges
                0x00000000000002a8       0x20 libcom32.a(cache.o)
 .debug_aranges
                0x00000000000002c8       0x18 libcom32.a(pmapi.o)
 .debug_aranges
                0x00000000000002e0       0x20 libcom32.a(rllpack.o)
 .debug_aranges
                0x0000000000000300       0x20 libcom32.a(hello.o)
 .debug_aranges
                0x0000000000000320       0x20 libcom32.a(graphics.o)
 .debug_aranges
                0x0000000000000340       0x20 libcom32.a(font.o)
 .debug_aranges
                0x0000000000000360       0x20 libcom32.a(bios.o)
 .debug_aranges
                0x0000000000000380       0x20 libcom32.a(path.o)
 .debug_aranges
                0x00000000000003a0       0x20 libcom32.a(init.o)
 .debug_aranges
                0x00000000000003c0       0x20 libcom32.a(lzo1x_f2.o)
 .debug_aranges
                0x00000000000003e0       0x18 libcom32.a(errno.o)
 .debug_aranges
                0x00000000000003f8       0x20 libcom32.a(serirq.o)
 .debug_aranges
                0x0000000000000418       0x20 libcom32.a(malloc.o)
 .debug_aranges
                0x0000000000000438       0x20 libcom32.a(free.o)
 .debug_aranges
                0x0000000000000458       0x20 libcom32.a(sysappend.o)
 .debug_aranges
                0x0000000000000478       0x20 libcom32.a(kaboom.o)
 .debug_aranges
                0x0000000000000498       0x20 libcom32.a(call16.o)
 .debug_aranges
                0x00000000000004b8       0x20 libcom32.a(dmi.o)
 .debug_aranges
                0x00000000000004d8       0x20 libcom32.a(getfssec.o)
 .debug_aranges
                0x00000000000004f8       0x20 libcom32.a(sem_asm.o)
 .debug_aranges
                0x0000000000000518       0x20 libcom32.a(semaphore.o)
 .debug_aranges
                0x0000000000000538       0x18 libcom32.a(root_thread.o)
 .debug_aranges
                0x0000000000000550       0x20 libcom32.a(schedule.o)
 .debug_aranges
                0x0000000000000570       0x20 libcom32.a(thread_asm.o)
 .debug_aranges
                0x0000000000000590       0x20 libcom32.a(exit_thread.o)
 .debug_aranges
                0x00000000000005b0       0x20 /opt/syslinux/bios/com32/lib/libcom32core.a(memcpy.o)
 .debug_aranges
                0x00000000000005d0       0x20 /opt/syslinux/bios/com32/lib/libcom32core.a(memset.o)
 .debug_aranges
                0x00000000000005f0       0x20 /opt/syslinux/bios/com32/lib/libcom32core.a(memcmp.o)
 .debug_aranges
                0x0000000000000610       0x20 /opt/syslinux/bios/com32/lib/libcom32core.a(printf.o)
 .debug_aranges
                0x0000000000000630       0x20 /opt/syslinux/bios/com32/lib/libcom32core.a(strncmp.o)
 .debug_aranges
                0x0000000000000650       0x20 /opt/syslinux/bios/com32/lib/libcom32core.a(vfprintf.o)
 .debug_aranges
                0x0000000000000670       0x20 /opt/syslinux/bios/com32/lib/libcom32core.a(strlen.o)
 .debug_aranges
                0x0000000000000690       0x20 /opt/syslinux/bios/com32/lib/libcom32core.a(vsnprintf.o)
 .debug_aranges
                0x00000000000006b0       0x20 /opt/syslinux/bios/com32/lib/libcom32core.a(snprintf.o)
 .debug_aranges
                0x00000000000006d0       0x20 /opt/syslinux/bios/com32/lib/libcom32core.a(stpcpy.o)
 .debug_aranges
                0x00000000000006f0       0x20 /opt/syslinux/bios/com32/lib/libcom32core.a(strcmp.o)
 .debug_aranges
                0x0000000000000710       0x20 /opt/syslinux/bios/com32/lib/libcom32core.a(strdup.o)
 .debug_aranges
                0x0000000000000730       0x20 /opt/syslinux/bios/com32/lib/libcom32core.a(strcpy.o)
 .debug_aranges
                0x0000000000000750       0x20 /opt/syslinux/bios/com32/lib/libcom32core.a(strncpy.o)
 .debug_aranges
                0x0000000000000770       0x20 /opt/syslinux/bios/com32/lib/libcom32core.a(setjmp.o)
 .debug_aranges
                0x0000000000000790       0x20 /opt/syslinux/bios/com32/lib/libcom32core.a(fopen.o)
 .debug_aranges
                0x00000000000007b0       0x20 /opt/syslinux/bios/com32/lib/libcom32core.a(fread.o)
 .debug_aranges
                0x00000000000007d0       0x20 /opt/syslinux/bios/com32/lib/libcom32core.a(fread2.o)
 .debug_aranges
                0x00000000000007f0       0x20 /opt/syslinux/bios/com32/lib/libcom32core.a(puts.o)
 .debug_aranges
                0x0000000000000810       0x20 /opt/syslinux/bios/com32/lib/libcom32core.a(strtoul.o)
 .debug_aranges
                0x0000000000000830       0x20 /opt/syslinux/bios/com32/lib/libcom32core.a(strntoumax.o)
 .debug_aranges
                0x0000000000000850       0x20 /opt/syslinux/bios/com32/lib/libcom32core.a(strcasecmp.o)
 .debug_aranges
                0x0000000000000870       0x20 /opt/syslinux/bios/com32/lib/libcom32core.a(sprintf.o)
 .debug_aranges
                0x0000000000000890       0x20 /opt/syslinux/bios/com32/lib/libcom32core.a(strlcat.o)
 .debug_aranges
                0x00000000000008b0       0x20 /opt/syslinux/bios/com32/lib/libcom32core.a(strchr.o)
 .debug_aranges
                0x00000000000008d0       0x20 /opt/syslinux/bios/com32/lib/libcom32core.a(strlcpy.o)
 .debug_aranges
                0x00000000000008f0       0x20 /opt/syslinux/bios/com32/lib/libcom32core.a(strncasecmp.o)
 .debug_aranges
                0x0000000000000910       0x18 /opt/syslinux/bios/com32/lib/libcom32core.a(ctypes.o)
 .debug_aranges
                0x0000000000000928       0x20 /opt/syslinux/bios/com32/lib/libcom32core.a(fputs.o)
 .debug_aranges
                0x0000000000000948       0x20 /opt/syslinux/bios/com32/lib/libcom32core.a(fwrite2.o)
 .debug_aranges
                0x0000000000000968       0x20 /opt/syslinux/bios/com32/lib/libcom32core.a(fwrite.o)
 .debug_aranges
                0x0000000000000988       0x20 /opt/syslinux/bios/com32/lib/libcom32core.a(fgetc.o)
 .debug_aranges
                0x00000000000009a8       0x20 /opt/syslinux/bios/com32/lib/libcom32core.a(fclose.o)
 .debug_aranges
                0x00000000000009c8       0x20 /opt/syslinux/bios/com32/lib/libcom32core.a(lmalloc.o)
 .debug_aranges
                0x00000000000009e8       0x20 /opt/syslinux/bios/com32/lib/libcom32core.a(err_read.o)
 .debug_aranges
                0x0000000000000a08       0x20 /opt/syslinux/bios/com32/lib/libcom32core.a(err_write.o)
 .debug_aranges
                0x0000000000000a28       0x20 /opt/syslinux/bios/com32/lib/libcom32core.a(null_read.o)
 .debug_aranges
                0x0000000000000a48       0x20 /opt/syslinux/bios/com32/lib/libcom32core.a(stdcon_write.o)
 .debug_aranges
                0x0000000000000a68       0x20 /opt/syslinux/bios/com32/lib/libcom32core.a(memscan.o)
 .debug_aranges
                0x0000000000000a88       0x20 /opt/syslinux/bios/com32/lib/libcom32core.a(strrchr.o)
 .debug_aranges
                0x0000000000000aa8       0x20 /opt/syslinux/bios/com32/lib/libcom32core.a(strcat.o)
 .debug_aranges
                0x0000000000000ac8       0x20 /opt/syslinux/bios/com32/lib/libcom32core.a(__ashldi3.o)
 .debug_aranges
                0x0000000000000ae8       0x20 /opt/syslinux/bios/com32/lib/libcom32core.a(__udivdi3.o)
 .debug_aranges
                0x0000000000000b08       0x20 /opt/syslinux/bios/com32/lib/libcom32core.a(__negdi2.o)
 .debug_aranges
                0x0000000000000b28       0x20 /opt/syslinux/bios/com32/lib/libcom32core.a(__ashrdi3.o)
 .debug_aranges
                0x0000000000000b48       0x20 /opt/syslinux/bios/com32/lib/libcom32core.a(__lshrdi3.o)
 .debug_aranges
                0x0000000000000b68       0x20 /opt/syslinux/bios/com32/lib/libcom32core.a(__muldi3.o)
 .debug_aranges
                0x0000000000000b88       0x20 /opt/syslinux/bios/com32/lib/libcom32core.a(__udivmoddi4.o)
 .debug_aranges
                0x0000000000000ba8       0x20 /opt/syslinux/bios/com32/lib/libcom32core.a(__umoddi3.o)
 .debug_aranges
                0x0000000000000bc8       0x20 /opt/syslinux/bios/com32/lib/libcom32core.a(__divdi3.o)
 .debug_aranges
                0x0000000000000be8       0x20 /opt/syslinux/bios/com32/lib/libcom32core.a(__moddi3.o)
 .debug_aranges
                0x0000000000000c08       0x20 /opt/syslinux/bios/com32/lib/libcom32core.a(debug.o)
 .debug_aranges
                0x0000000000000c28       0x20 /opt/syslinux/bios/com32/lib/libcom32core.a(intcall.o)
 .debug_aranges
                0x0000000000000c48       0x20 /opt/syslinux/bios/com32/lib/libcom32core.a(farcall.o)
 .debug_aranges
                0x0000000000000c68       0x20 /opt/syslinux/bios/com32/lib/libcom32core.a(cfarcall.o)
 .debug_aranges
                0x0000000000000c88       0x18 /opt/syslinux/bios/com32/lib/libcom32core.a(zeroregs.o)
 .debug_aranges
                0x0000000000000ca0       0x20 /opt/syslinux/bios/com32/lib/libcom32core.a(argv.o)
 .debug_aranges
                0x0000000000000cc0       0x20 /opt/syslinux/bios/com32/lib/libcom32core.a(sleep.o)
 .debug_aranges
                0x0000000000000ce0       0x18 /opt/syslinux/bios/com32/lib/libcom32core.a(fileinfo.o)
 .debug_aranges
                0x0000000000000cf8       0x20 /opt/syslinux/bios/com32/lib/libcom32core.a(opendev.o)
 .debug_aranges
                0x0000000000000d18       0x20 /opt/syslinux/bios/com32/lib/libcom32core.a(read.o)
 .debug_aranges
                0x0000000000000d38       0x20 /opt/syslinux/bios/com32/lib/libcom32core.a(write.o)
 .debug_aranges
                0x0000000000000d58       0x20 /opt/syslinux/bios/com32/lib/libcom32core.a(ftell.o)
 .debug_aranges
                0x0000000000000d78       0x20 /opt/syslinux/bios/com32/lib/libcom32core.a(close.o)
 .debug_aranges
                0x0000000000000d98       0x20 /opt/syslinux/bios/com32/lib/libcom32core.a(open.o)
 .debug_aranges
                0x0000000000000db8       0x20 /opt/syslinux/bios/com32/lib/libcom32core.a(fileread.o)
 .debug_aranges
                0x0000000000000dd8       0x20 /opt/syslinux/bios/com32/lib/libcom32core.a(fileclose.o)
 .debug_aranges
                0x0000000000000df8       0x20 /opt/syslinux/bios/com32/lib/libcom32core.a(openmem.o)
 .debug_aranges
                0x0000000000000e18       0x20 /opt/syslinux/bios/com32/lib/libcom32core.a(isatty.o)
 .debug_aranges
                0x0000000000000e38       0x20 /opt/syslinux/bios/com32/lib/libcom32core.a(fstat.o)
 .debug_aranges
                0x0000000000000e58       0x18 /opt/syslinux/bios/com32/lib/libcom32core.a(dprintf.o)
 .debug_aranges
                0x0000000000000e70       0x18 /opt/syslinux/bios/com32/lib/libcom32core.a(vdprintf.o)
 .debug_aranges
                0x0000000000000e88       0x20 /opt/syslinux/bios/com32/lib/libcom32core.a(idle.o)
 .debug_aranges
                0x0000000000000ea8       0x20 /opt/syslinux/bios/com32/lib/libcom32core.a(exit.o)
 .debug_aranges
                0x0000000000000ec8       0x20 /opt/syslinux/bios/com32/lib/libcom32core.a(common.o)
 .debug_aranges
                0x0000000000000ee8       0x20 /opt/syslinux/bios/com32/lib/libcom32core.a(elf_module.o)
 .debug_aranges
                0x0000000000000f08       0x20 /opt/syslinux/bios/com32/lib/libcom32core.a(elfutils.o)
 .debug_aranges
                0x0000000000000f28       0x20 /opt/syslinux/bios/com32/lib/libcom32core.a(exec.o)
 .debug_aranges
                0x0000000000000f48       0x20 /opt/syslinux/bios/com32/lib/libcom32core.a(elf_module.o)
 .debug_aranges
                0x0000000000000f68       0x20 libisolinux.a(rawcon.o)
 .debug_aranges
                0x0000000000000f88       0x20 libisolinux.a(localboot.o)
 .debug_aranges
                0x0000000000000fa8       0x20 libisolinux.a(isolinux-c.o)

.debug_pubnames
                0x0000000000000000       0x12
 .debug_pubnames
                0x0000000000000000       0x12 isolinux.o

.debug_info     0x0000000000000000    0x42399
 .debug_info    0x0000000000000000       0x51 isolinux.o
 .debug_info    0x0000000000000051      0x811 libcom32.a(writestr.o)
 .debug_info    0x0000000000000862      0x89d libcom32.a(idle.o)
 .debug_info    0x00000000000010ff      0xb82 libcom32.a(cleanup.o)
 .debug_info    0x0000000000001c81      0xcc8 libcom32.a(init.o)
 .debug_info    0x0000000000002949     0x1ba2 libcom32.a(conio.o)
 .debug_info    0x00000000000044eb      0x8dd libcom32.a(writehex.o)
 .debug_info    0x0000000000004dc8     0x248b libcom32.a(load_env32.o)
 .debug_info    0x0000000000007253      0xe6c libcom32.a(getcwd.o)
 .debug_info    0x00000000000080bf      0xfca libcom32.a(readdir.o)
 .debug_info    0x0000000000009089     0x1c21 libcom32.a(fs.o)
 .debug_info    0x000000000000acaa     0x1957 libcom32.a(iso9660.o)
 .debug_info    0x000000000000c601     0x1a77 libcom32.a(susp_rr.o)
 .debug_info    0x000000000000e078     0x135a libcom32.a(chdir.o)
 .debug_info    0x000000000000f3d2     0x131a libcom32.a(diskio.o)
 .debug_info    0x00000000000106ec     0x18a3 libcom32.a(diskio_bios.o)
 .debug_info    0x0000000000011f8f      0xe25 libcom32.a(nonextextent.o)
 .debug_info    0x0000000000012db4      0xe71 libcom32.a(mangle.o)
 .debug_info    0x0000000000013c25      0xff1 libcom32.a(searchconfig.o)
 .debug_info    0x0000000000014c16      0xe2c libcom32.a(close.o)
 .debug_info    0x0000000000015a42     0x10c9 libcom32.a(cache.o)
 .debug_info    0x0000000000016b0b      0xe85 libcom32.a(pmapi.o)
 .debug_info    0x0000000000017990      0x3e5 libcom32.a(rllpack.o)
 .debug_info    0x0000000000017d75      0xa25 libcom32.a(hello.o)
 .debug_info    0x000000000001879a     0x19c9 libcom32.a(graphics.o)
 .debug_info    0x000000000001a163     0x17fc libcom32.a(font.o)
 .debug_info    0x000000000001b95f     0x2f3c libcom32.a(bios.o)
 .debug_info    0x000000000001e89b     0x1024 libcom32.a(path.o)
 .debug_info    0x000000000001f8bf     0x12b4 libcom32.a(init.o)
 .debug_info    0x0000000000020b73       0x26 libcom32.a(lzo1x_f2.o)
 .debug_info    0x0000000000020b99       0x3e libcom32.a(errno.o)
 .debug_info    0x0000000000020bd7     0x1895 libcom32.a(serirq.o)
 .debug_info    0x000000000002246c     0x142b libcom32.a(malloc.o)
 .debug_info    0x0000000000023897     0x112c libcom32.a(free.o)
 .debug_info    0x00000000000249c3     0x1149 libcom32.a(sysappend.o)
 .debug_info    0x0000000000025b0c      0x75d libcom32.a(kaboom.o)
 .debug_info    0x0000000000026269      0x867 libcom32.a(call16.o)
 .debug_info    0x0000000000026ad0     0x142c libcom32.a(dmi.o)
 .debug_info    0x0000000000027efc     0x10b3 libcom32.a(getfssec.o)
 .debug_info    0x0000000000028faf       0x26 libcom32.a(sem_asm.o)
 .debug_info    0x0000000000028fd5      0x5ea libcom32.a(semaphore.o)
 .debug_info    0x00000000000295bf      0x2ce libcom32.a(root_thread.o)
 .debug_info    0x000000000002988d      0xb96 libcom32.a(schedule.o)
 .debug_info    0x000000000002a423       0x26 libcom32.a(thread_asm.o)
 .debug_info    0x000000000002a449      0x9bb libcom32.a(exit_thread.o)
 .debug_info    0x000000000002ae04      0x102 /opt/syslinux/bios/com32/lib/libcom32core.a(memcpy.o)
 .debug_info    0x000000000002af06       0xe4 /opt/syslinux/bios/com32/lib/libcom32core.a(memset.o)
 .debug_info    0x000000000002afea       0xd3 /opt/syslinux/bios/com32/lib/libcom32core.a(memcmp.o)
 .debug_info    0x000000000002b0bd       0xfb /opt/syslinux/bios/com32/lib/libcom32core.a(printf.o)
 .debug_info    0x000000000002b1b8       0xed /opt/syslinux/bios/com32/lib/libcom32core.a(strncmp.o)
 .debug_info    0x000000000002b2a5      0x1b1 /opt/syslinux/bios/com32/lib/libcom32core.a(vfprintf.o)
 .debug_info    0x000000000002b456       0x8a /opt/syslinux/bios/com32/lib/libcom32core.a(strlen.o)
 .debug_info    0x000000000002b4e0      0x4ef /opt/syslinux/bios/com32/lib/libcom32core.a(vsnprintf.o)
 .debug_info    0x000000000002b9cf      0x10f /opt/syslinux/bios/com32/lib/libcom32core.a(snprintf.o)
 .debug_info    0x000000000002bade       0xae /opt/syslinux/bios/com32/lib/libcom32core.a(stpcpy.o)
 .debug_info    0x000000000002bb8c       0xd1 /opt/syslinux/bios/com32/lib/libcom32core.a(strcmp.o)
 .debug_info    0x000000000002bc5d       0xb3 /opt/syslinux/bios/com32/lib/libcom32core.a(strdup.o)
 .debug_info    0x000000000002bd10       0xae /opt/syslinux/bios/com32/lib/libcom32core.a(strcpy.o)
 .debug_info    0x000000000002bdbe       0xca /opt/syslinux/bios/com32/lib/libcom32core.a(strncpy.o)
 .debug_info    0x000000000002be88       0x26 /opt/syslinux/bios/com32/lib/libcom32core.a(setjmp.o)
 .debug_info    0x000000000002beae      0x19c /opt/syslinux/bios/com32/lib/libcom32core.a(fopen.o)
 .debug_info    0x000000000002c04a      0x1c4 /opt/syslinux/bios/com32/lib/libcom32core.a(fread.o)
 .debug_info    0x000000000002c20e       0xe6 /opt/syslinux/bios/com32/lib/libcom32core.a(fread2.o)
 .debug_info    0x000000000002c2f4       0xe2 /opt/syslinux/bios/com32/lib/libcom32core.a(puts.o)
 .debug_info    0x000000000002c3d6      0x10c /opt/syslinux/bios/com32/lib/libcom32core.a(strtoul.o)
 .debug_info    0x000000000002c4e2      0x1f7 /opt/syslinux/bios/com32/lib/libcom32core.a(strntoumax.o)
 .debug_info    0x000000000002c6d9      0x1c8 /opt/syslinux/bios/com32/lib/libcom32core.a(strcasecmp.o)
 .debug_info    0x000000000002c8a1      0x15b /opt/syslinux/bios/com32/lib/libcom32core.a(sprintf.o)
 .debug_info    0x000000000002c9fc       0xdc /opt/syslinux/bios/com32/lib/libcom32core.a(strlcat.o)
 .debug_info    0x000000000002cad8       0x88 /opt/syslinux/bios/com32/lib/libcom32core.a(strchr.o)
 .debug_info    0x000000000002cb60       0xda /opt/syslinux/bios/com32/lib/libcom32core.a(strlcpy.o)
 .debug_info    0x000000000002cc3a      0x1e4 /opt/syslinux/bios/com32/lib/libcom32core.a(strncasecmp.o)
 .debug_info    0x000000000002ce1e       0x9a /opt/syslinux/bios/com32/lib/libcom32core.a(ctypes.o)
 .debug_info    0x000000000002ceb8       0xbf /opt/syslinux/bios/com32/lib/libcom32core.a(fputs.o)
 .debug_info    0x000000000002cf77       0xeb /opt/syslinux/bios/com32/lib/libcom32core.a(fwrite2.o)
 .debug_info    0x000000000002d062      0x1d4 /opt/syslinux/bios/com32/lib/libcom32core.a(fwrite.o)
 .debug_info    0x000000000002d236      0x124 /opt/syslinux/bios/com32/lib/libcom32core.a(fgetc.o)
 .debug_info    0x000000000002d35a      0x147 /opt/syslinux/bios/com32/lib/libcom32core.a(fclose.o)
 .debug_info    0x000000000002d4a1      0x5ca /opt/syslinux/bios/com32/lib/libcom32core.a(lmalloc.o)
 .debug_info    0x000000000002da6b      0x7f1 /opt/syslinux/bios/com32/lib/libcom32core.a(err_read.o)
 .debug_info    0x000000000002e25c      0x7f1 /opt/syslinux/bios/com32/lib/libcom32core.a(err_write.o)
 .debug_info    0x000000000002ea4d      0x7f1 /opt/syslinux/bios/com32/lib/libcom32core.a(null_read.o)
 .debug_info    0x000000000002f23e      0xaea /opt/syslinux/bios/com32/lib/libcom32core.a(stdcon_write.o)
 .debug_info    0x000000000002fd28      0x328 /opt/syslinux/bios/com32/lib/libcom32core.a(memscan.o)
 .debug_info    0x0000000000030050       0x98 /opt/syslinux/bios/com32/lib/libcom32core.a(strrchr.o)
 .debug_info    0x00000000000300e8       0xa4 /opt/syslinux/bios/com32/lib/libcom32core.a(strcat.o)
 .debug_info    0x000000000003018c       0x26 /opt/syslinux/bios/com32/lib/libcom32core.a(__ashldi3.o)
 .debug_info    0x00000000000301b2       0xcf /opt/syslinux/bios/com32/lib/libcom32core.a(__udivdi3.o)
 .debug_info    0x0000000000030281       0x26 /opt/syslinux/bios/com32/lib/libcom32core.a(__negdi2.o)
 .debug_info    0x00000000000302a7       0x26 /opt/syslinux/bios/com32/lib/libcom32core.a(__ashrdi3.o)
 .debug_info    0x00000000000302cd       0x26 /opt/syslinux/bios/com32/lib/libcom32core.a(__lshrdi3.o)
 .debug_info    0x00000000000302f3       0x26 /opt/syslinux/bios/com32/lib/libcom32core.a(__muldi3.o)
 .debug_info    0x0000000000030319       0xff /opt/syslinux/bios/com32/lib/libcom32core.a(__udivmoddi4.o)
 .debug_info    0x0000000000030418       0xdc /opt/syslinux/bios/com32/lib/libcom32core.a(__umoddi3.o)
 .debug_info    0x00000000000304f4       0xdf /opt/syslinux/bios/com32/lib/libcom32core.a(__divdi3.o)
 .debug_info    0x00000000000305d3       0xea /opt/syslinux/bios/com32/lib/libcom32core.a(__moddi3.o)
 .debug_info    0x00000000000306bd       0xc3 /opt/syslinux/bios/com32/lib/libcom32core.a(debug.o)
 .debug_info    0x0000000000030780      0x31a /opt/syslinux/bios/com32/lib/libcom32core.a(intcall.o)
 .debug_info    0x0000000000030a9a      0x372 /opt/syslinux/bios/com32/lib/libcom32core.a(farcall.o)
 .debug_info    0x0000000000030e0c      0x32b /opt/syslinux/bios/com32/lib/libcom32core.a(cfarcall.o)
 .debug_info    0x0000000000031137      0x2dd /opt/syslinux/bios/com32/lib/libcom32core.a(zeroregs.o)
 .debug_info    0x0000000000031414      0x41d /opt/syslinux/bios/com32/lib/libcom32core.a(argv.o)
 .debug_info    0x0000000000031831      0x1be /opt/syslinux/bios/com32/lib/libcom32core.a(sleep.o)
 .debug_info    0x00000000000319ef      0x33e /opt/syslinux/bios/com32/lib/libcom32core.a(fileinfo.o)
 .debug_info    0x0000000000031d2d      0x8a2 /opt/syslinux/bios/com32/lib/libcom32core.a(opendev.o)
 .debug_info    0x00000000000325cf      0x802 /opt/syslinux/bios/com32/lib/libcom32core.a(read.o)
 .debug_info    0x0000000000032dd1      0x802 /opt/syslinux/bios/com32/lib/libcom32core.a(write.o)
 .debug_info    0x00000000000335d3      0x3c8 /opt/syslinux/bios/com32/lib/libcom32core.a(ftell.o)
 .debug_info    0x000000000003399b      0x801 /opt/syslinux/bios/com32/lib/libcom32core.a(close.o)
 .debug_info    0x000000000003419c     0x120b /opt/syslinux/bios/com32/lib/libcom32core.a(open.o)
 .debug_info    0x00000000000353a7      0x8d8 /opt/syslinux/bios/com32/lib/libcom32core.a(fileread.o)
 .debug_info    0x0000000000035c7f     0x109f /opt/syslinux/bios/com32/lib/libcom32core.a(fileclose.o)
 .debug_info    0x0000000000036d1e      0x873 /opt/syslinux/bios/com32/lib/libcom32core.a(openmem.o)
 .debug_info    0x0000000000037591      0x806 /opt/syslinux/bios/com32/lib/libcom32core.a(isatty.o)
 .debug_info    0x0000000000037d97      0x3dd /opt/syslinux/bios/com32/lib/libcom32core.a(fstat.o)
 .debug_info    0x0000000000038174       0x33 /opt/syslinux/bios/com32/lib/libcom32core.a(dprintf.o)
 .debug_info    0x00000000000381a7       0xa1 /opt/syslinux/bios/com32/lib/libcom32core.a(vdprintf.o)
 .debug_info    0x0000000000038248      0x77b /opt/syslinux/bios/com32/lib/libcom32core.a(idle.o)
 .debug_info    0x00000000000389c3      0x5a9 /opt/syslinux/bios/com32/lib/libcom32core.a(exit.o)
 .debug_info    0x0000000000038f6c     0x25ab /opt/syslinux/bios/com32/lib/libcom32core.a(common.o)
 .debug_info    0x000000000003b517     0x1409 /opt/syslinux/bios/com32/lib/libcom32core.a(elf_module.o)
 .debug_info    0x000000000003c920      0x61a /opt/syslinux/bios/com32/lib/libcom32core.a(elfutils.o)
 .debug_info    0x000000000003cf3a      0x726 /opt/syslinux/bios/com32/lib/libcom32core.a(exec.o)
 .debug_info    0x000000000003d660     0x1646 /opt/syslinux/bios/com32/lib/libcom32core.a(elf_module.o)
 .debug_info    0x000000000003eca6     0x10a4 libisolinux.a(rawcon.o)
 .debug_info    0x000000000003fd4a     0x10f8 libisolinux.a(localboot.o)
 .debug_info    0x0000000000040e42     0x1557 libisolinux.a(isolinux-c.o)

.debug_abbrev   0x0000000000000000     0xc767
 .debug_abbrev  0x0000000000000000       0x1b isolinux.o
 .debug_abbrev  0x000000000000001b      0x1f2 libcom32.a(writestr.o)
 .debug_abbrev  0x000000000000020d      0x1f2 libcom32.a(idle.o)
 .debug_abbrev  0x00000000000003ff      0x145 libcom32.a(cleanup.o)
 .debug_abbrev  0x0000000000000544      0x268 libcom32.a(init.o)
 .debug_abbrev  0x00000000000007ac      0x44c libcom32.a(conio.o)
 .debug_abbrev  0x0000000000000bf8      0x1ec libcom32.a(writehex.o)
 .debug_abbrev  0x0000000000000de4      0x445 libcom32.a(load_env32.o)
 .debug_abbrev  0x0000000000001229      0x1df libcom32.a(getcwd.o)
 .debug_abbrev  0x0000000000001408      0x266 libcom32.a(readdir.o)
 .debug_abbrev  0x000000000000166e      0x4a5 libcom32.a(fs.o)
 .debug_abbrev  0x0000000000001b13      0x3b0 libcom32.a(iso9660.o)
 .debug_abbrev  0x0000000000001ec3      0x395 libcom32.a(susp_rr.o)
 .debug_abbrev  0x0000000000002258      0x352 libcom32.a(chdir.o)
 .debug_abbrev  0x00000000000025aa      0x231 libcom32.a(diskio.o)
 .debug_abbrev  0x00000000000027db      0x38e libcom32.a(diskio_bios.o)
 .debug_abbrev  0x0000000000002b69      0x197 libcom32.a(nonextextent.o)
 .debug_abbrev  0x0000000000002d00      0x1d1 libcom32.a(mangle.o)
 .debug_abbrev  0x0000000000002ed1      0x20c libcom32.a(searchconfig.o)
 .debug_abbrev  0x00000000000030dd      0x1a7 libcom32.a(close.o)
 .debug_abbrev  0x0000000000003284      0x24a libcom32.a(cache.o)
 .debug_abbrev  0x00000000000034ce      0x168 libcom32.a(pmapi.o)
 .debug_abbrev  0x0000000000003636      0x167 libcom32.a(rllpack.o)
 .debug_abbrev  0x000000000000379d      0x21b libcom32.a(hello.o)
 .debug_abbrev  0x00000000000039b8      0x425 libcom32.a(graphics.o)
 .debug_abbrev  0x0000000000003ddd      0x314 libcom32.a(font.o)
 .debug_abbrev  0x00000000000040f1      0x5f0 libcom32.a(bios.o)
 .debug_abbrev  0x00000000000046e1      0x24c libcom32.a(path.o)
 .debug_abbrev  0x000000000000492d      0x18c libcom32.a(init.o)
 .debug_abbrev  0x0000000000004ab9       0x14 libcom32.a(lzo1x_f2.o)
 .debug_abbrev  0x0000000000004acd       0x3b libcom32.a(errno.o)
 .debug_abbrev  0x0000000000004b08      0x352 libcom32.a(serirq.o)
 .debug_abbrev  0x0000000000004e5a      0x2de libcom32.a(malloc.o)
 .debug_abbrev  0x0000000000005138      0x299 libcom32.a(free.o)
 .debug_abbrev  0x00000000000053d1      0x28c libcom32.a(sysappend.o)
 .debug_abbrev  0x000000000000565d      0x17f libcom32.a(kaboom.o)
 .debug_abbrev  0x00000000000057dc      0x1f3 libcom32.a(call16.o)
 .debug_abbrev  0x00000000000059cf      0x3f8 libcom32.a(dmi.o)
 .debug_abbrev  0x0000000000005dc7      0x2ba libcom32.a(getfssec.o)
 .debug_abbrev  0x0000000000006081       0x14 libcom32.a(sem_asm.o)
 .debug_abbrev  0x0000000000006095      0x24e libcom32.a(semaphore.o)
 .debug_abbrev  0x00000000000062e3       0xc2 libcom32.a(root_thread.o)
 .debug_abbrev  0x00000000000063a5      0x2c0 libcom32.a(schedule.o)
 .debug_abbrev  0x0000000000006665       0x14 libcom32.a(thread_asm.o)
 .debug_abbrev  0x0000000000006679      0x1a6 libcom32.a(exit_thread.o)
 .debug_abbrev  0x000000000000681f       0xa6 /opt/syslinux/bios/com32/lib/libcom32core.a(memcpy.o)
 .debug_abbrev  0x00000000000068c5       0x89 /opt/syslinux/bios/com32/lib/libcom32core.a(memset.o)
 .debug_abbrev  0x000000000000694e       0x8e /opt/syslinux/bios/com32/lib/libcom32core.a(memcmp.o)
 .debug_abbrev  0x00000000000069dc       0xdd /opt/syslinux/bios/com32/lib/libcom32core.a(printf.o)
 .debug_abbrev  0x0000000000006ab9       0x89 /opt/syslinux/bios/com32/lib/libcom32core.a(strncmp.o)
 .debug_abbrev  0x0000000000006b42      0x11b /opt/syslinux/bios/com32/lib/libcom32core.a(vfprintf.o)
 .debug_abbrev  0x0000000000006c5d       0x7e /opt/syslinux/bios/com32/lib/libcom32core.a(strlen.o)
 .debug_abbrev  0x0000000000006cdb      0x1cf /opt/syslinux/bios/com32/lib/libcom32core.a(vsnprintf.o)
 .debug_abbrev  0x0000000000006eaa       0xe5 /opt/syslinux/bios/com32/lib/libcom32core.a(snprintf.o)
 .debug_abbrev  0x0000000000006f8f       0x91 /opt/syslinux/bios/com32/lib/libcom32core.a(stpcpy.o)
 .debug_abbrev  0x0000000000007020       0x8b /opt/syslinux/bios/com32/lib/libcom32core.a(strcmp.o)
 .debug_abbrev  0x00000000000070ab       0xb5 /opt/syslinux/bios/com32/lib/libcom32core.a(strdup.o)
 .debug_abbrev  0x0000000000007160       0x6f /opt/syslinux/bios/com32/lib/libcom32core.a(strcpy.o)
 .debug_abbrev  0x00000000000071cf       0x8f /opt/syslinux/bios/com32/lib/libcom32core.a(strncpy.o)
 .debug_abbrev  0x000000000000725e       0x14 /opt/syslinux/bios/com32/lib/libcom32core.a(setjmp.o)
 .debug_abbrev  0x0000000000007272      0x12a /opt/syslinux/bios/com32/lib/libcom32core.a(fopen.o)
 .debug_abbrev  0x000000000000739c      0x12f /opt/syslinux/bios/com32/lib/libcom32core.a(fread.o)
 .debug_abbrev  0x00000000000074cb       0xc2 /opt/syslinux/bios/com32/lib/libcom32core.a(fread2.o)
 .debug_abbrev  0x000000000000758d       0xb8 /opt/syslinux/bios/com32/lib/libcom32core.a(puts.o)
 .debug_abbrev  0x0000000000007645       0xa2 /opt/syslinux/bios/com32/lib/libcom32core.a(strtoul.o)
 .debug_abbrev  0x00000000000076e7      0x153 /opt/syslinux/bios/com32/lib/libcom32core.a(strntoumax.o)
 .debug_abbrev  0x000000000000783a      0x144 /opt/syslinux/bios/com32/lib/libcom32core.a(strcasecmp.o)
 .debug_abbrev  0x000000000000797e       0xe7 /opt/syslinux/bios/com32/lib/libcom32core.a(sprintf.o)
 .debug_abbrev  0x0000000000007a65       0xa0 /opt/syslinux/bios/com32/lib/libcom32core.a(strlcat.o)
 .debug_abbrev  0x0000000000007b05       0x7a /opt/syslinux/bios/com32/lib/libcom32core.a(strchr.o)
 .debug_abbrev  0x0000000000007b7f       0xb1 /opt/syslinux/bios/com32/lib/libcom32core.a(strlcpy.o)
 .debug_abbrev  0x0000000000007c30      0x142 /opt/syslinux/bios/com32/lib/libcom32core.a(strncasecmp.o)
 .debug_abbrev  0x0000000000007d72       0x6e /opt/syslinux/bios/com32/lib/libcom32core.a(ctypes.o)
 .debug_abbrev  0x0000000000007de0       0xbc /opt/syslinux/bios/com32/lib/libcom32core.a(fputs.o)
 .debug_abbrev  0x0000000000007e9c       0xc0 /opt/syslinux/bios/com32/lib/libcom32core.a(fwrite2.o)
 .debug_abbrev  0x0000000000007f5c      0x134 /opt/syslinux/bios/com32/lib/libcom32core.a(fwrite.o)
 .debug_abbrev  0x0000000000008090       0xc8 /opt/syslinux/bios/com32/lib/libcom32core.a(fgetc.o)
 .debug_abbrev  0x0000000000008158       0xf5 /opt/syslinux/bios/com32/lib/libcom32core.a(fclose.o)
 .debug_abbrev  0x000000000000824d      0x1a3 /opt/syslinux/bios/com32/lib/libcom32core.a(lmalloc.o)
 .debug_abbrev  0x00000000000083f0      0x191 /opt/syslinux/bios/com32/lib/libcom32core.a(err_read.o)
 .debug_abbrev  0x0000000000008581      0x191 /opt/syslinux/bios/com32/lib/libcom32core.a(err_write.o)
 .debug_abbrev  0x0000000000008712      0x191 /opt/syslinux/bios/com32/lib/libcom32core.a(null_read.o)
 .debug_abbrev  0x00000000000088a3      0x20b /opt/syslinux/bios/com32/lib/libcom32core.a(stdcon_write.o)
 .debug_abbrev  0x0000000000008aae      0x1be /opt/syslinux/bios/com32/lib/libcom32core.a(memscan.o)
 .debug_abbrev  0x0000000000008c6c       0x8b /opt/syslinux/bios/com32/lib/libcom32core.a(strrchr.o)
 .debug_abbrev  0x0000000000008cf7       0x88 /opt/syslinux/bios/com32/lib/libcom32core.a(strcat.o)
 .debug_abbrev  0x0000000000008d7f       0x14 /opt/syslinux/bios/com32/lib/libcom32core.a(__ashldi3.o)
 .debug_abbrev  0x0000000000008d93       0xa3 /opt/syslinux/bios/com32/lib/libcom32core.a(__udivdi3.o)
 .debug_abbrev  0x0000000000008e36       0x14 /opt/syslinux/bios/com32/lib/libcom32core.a(__negdi2.o)
 .debug_abbrev  0x0000000000008e4a       0x14 /opt/syslinux/bios/com32/lib/libcom32core.a(__ashrdi3.o)
 .debug_abbrev  0x0000000000008e5e       0x14 /opt/syslinux/bios/com32/lib/libcom32core.a(__lshrdi3.o)
 .debug_abbrev  0x0000000000008e72       0x14 /opt/syslinux/bios/com32/lib/libcom32core.a(__muldi3.o)
 .debug_abbrev  0x0000000000008e86       0xb5 /opt/syslinux/bios/com32/lib/libcom32core.a(__udivmoddi4.o)
 .debug_abbrev  0x0000000000008f3b       0xb4 /opt/syslinux/bios/com32/lib/libcom32core.a(__umoddi3.o)
 .debug_abbrev  0x0000000000008fef       0xa8 /opt/syslinux/bios/com32/lib/libcom32core.a(__divdi3.o)
 .debug_abbrev  0x0000000000009097       0xa8 /opt/syslinux/bios/com32/lib/libcom32core.a(__moddi3.o)
 .debug_abbrev  0x000000000000913f       0xb2 /opt/syslinux/bios/com32/lib/libcom32core.a(debug.o)
 .debug_abbrev  0x00000000000091f1      0x129 /opt/syslinux/bios/com32/lib/libcom32core.a(intcall.o)
 .debug_abbrev  0x000000000000931a      0x1a1 /opt/syslinux/bios/com32/lib/libcom32core.a(farcall.o)
 .debug_abbrev  0x00000000000094bb      0x14d /opt/syslinux/bios/com32/lib/libcom32core.a(cfarcall.o)
 .debug_abbrev  0x0000000000009608      0x109 /opt/syslinux/bios/com32/lib/libcom32core.a(zeroregs.o)
 .debug_abbrev  0x0000000000009711      0x1c3 /opt/syslinux/bios/com32/lib/libcom32core.a(argv.o)
 .debug_abbrev  0x00000000000098d4      0x120 /opt/syslinux/bios/com32/lib/libcom32core.a(sleep.o)
 .debug_abbrev  0x00000000000099f4      0x102 /opt/syslinux/bios/com32/lib/libcom32core.a(fileinfo.o)
 .debug_abbrev  0x0000000000009af6      0x1ca /opt/syslinux/bios/com32/lib/libcom32core.a(opendev.o)
 .debug_abbrev  0x0000000000009cc0      0x199 /opt/syslinux/bios/com32/lib/libcom32core.a(read.o)
 .debug_abbrev  0x0000000000009e59      0x199 /opt/syslinux/bios/com32/lib/libcom32core.a(write.o)
 .debug_abbrev  0x0000000000009ff2      0x17a /opt/syslinux/bios/com32/lib/libcom32core.a(ftell.o)
 .debug_abbrev  0x000000000000a16c      0x193 /opt/syslinux/bios/com32/lib/libcom32core.a(close.o)
 .debug_abbrev  0x000000000000a2ff      0x213 /opt/syslinux/bios/com32/lib/libcom32core.a(open.o)
 .debug_abbrev  0x000000000000a512      0x1e8 /opt/syslinux/bios/com32/lib/libcom32core.a(fileread.o)
 .debug_abbrev  0x000000000000a6fa      0x1b5 /opt/syslinux/bios/com32/lib/libcom32core.a(fileclose.o)
 .debug_abbrev  0x000000000000a8af      0x1bf /opt/syslinux/bios/com32/lib/libcom32core.a(openmem.o)
 .debug_abbrev  0x000000000000aa6e      0x173 /opt/syslinux/bios/com32/lib/libcom32core.a(isatty.o)
 .debug_abbrev  0x000000000000abe1      0x148 /opt/syslinux/bios/com32/lib/libcom32core.a(fstat.o)
 .debug_abbrev  0x000000000000ad29       0x1b /opt/syslinux/bios/com32/lib/libcom32core.a(dprintf.o)
 .debug_abbrev  0x000000000000ad44       0x42 /opt/syslinux/bios/com32/lib/libcom32core.a(vdprintf.o)
 .debug_abbrev  0x000000000000ad86      0x15d /opt/syslinux/bios/com32/lib/libcom32core.a(idle.o)
 .debug_abbrev  0x000000000000aee3      0x1c4 /opt/syslinux/bios/com32/lib/libcom32core.a(exit.o)
 .debug_abbrev  0x000000000000b0a7      0x4cf /opt/syslinux/bios/com32/lib/libcom32core.a(common.o)
 .debug_abbrev  0x000000000000b576      0x363 /opt/syslinux/bios/com32/lib/libcom32core.a(elf_module.o)
 .debug_abbrev  0x000000000000b8d9      0x1de /opt/syslinux/bios/com32/lib/libcom32core.a(elfutils.o)
 .debug_abbrev  0x000000000000bab7      0x280 /opt/syslinux/bios/com32/lib/libcom32core.a(exec.o)
 .debug_abbrev  0x000000000000bd37      0x3a2 /opt/syslinux/bios/com32/lib/libcom32core.a(elf_module.o)
 .debug_abbrev  0x000000000000c0d9      0x273 libisolinux.a(rawcon.o)
 .debug_abbrev  0x000000000000c34c      0x275 libisolinux.a(localboot.o)
 .debug_abbrev  0x000000000000c5c1      0x1a6 libisolinux.a(isolinux-c.o)

.debug_line     0x0000000000000000    0x1155f
 .debug_line    0x0000000000000000      0x8f8 isolinux.o
 .debug_line    0x00000000000008f8      0x19a libcom32.a(writestr.o)
 .debug_line    0x0000000000000a92      0x20a libcom32.a(idle.o)
 .debug_line    0x0000000000000c9c      0x15a libcom32.a(cleanup.o)
 .debug_line    0x0000000000000df6      0x244 libcom32.a(init.o)
 .debug_line    0x000000000000103a      0x5f8 libcom32.a(conio.o)
 .debug_line    0x0000000000001632      0x1a2 libcom32.a(writehex.o)
 .debug_line    0x00000000000017d4      0x650 libcom32.a(load_env32.o)
 .debug_line    0x0000000000001e24      0x1f8 libcom32.a(getcwd.o)
 .debug_line    0x000000000000201c      0x23e libcom32.a(readdir.o)
 .debug_line    0x000000000000225a      0x839 libcom32.a(fs.o)
 .debug_line    0x0000000000002a93      0x645 libcom32.a(iso9660.o)
 .debug_line    0x00000000000030d8      0x815 libcom32.a(susp_rr.o)
 .debug_line    0x00000000000038ed      0x3f4 libcom32.a(chdir.o)
 .debug_line    0x0000000000003ce1      0x215 libcom32.a(diskio.o)
 .debug_line    0x0000000000003ef6      0x715 libcom32.a(diskio_bios.o)
 .debug_line    0x000000000000460b      0x1c7 libcom32.a(nonextextent.o)
 .debug_line    0x00000000000047d2      0x23e libcom32.a(mangle.o)
 .debug_line    0x0000000000004a10      0x268 libcom32.a(searchconfig.o)
 .debug_line    0x0000000000004c78      0x1d5 libcom32.a(close.o)
 .debug_line    0x0000000000004e4d      0x429 libcom32.a(cache.o)
 .debug_line    0x0000000000005276      0x1b4 libcom32.a(pmapi.o)
 .debug_line    0x000000000000542a      0x25c libcom32.a(rllpack.o)
 .debug_line    0x0000000000005686      0x213 libcom32.a(hello.o)
 .debug_line    0x0000000000005899      0x5ca libcom32.a(graphics.o)
 .debug_line    0x0000000000005e63      0x3dc libcom32.a(font.o)
 .debug_line    0x000000000000623f      0xb53 libcom32.a(bios.o)
 .debug_line    0x0000000000006d92      0x24e libcom32.a(path.o)
 .debug_line    0x0000000000006fe0      0x1d7 libcom32.a(init.o)
 .debug_line    0x00000000000071b7      0x14e libcom32.a(lzo1x_f2.o)
 .debug_line    0x0000000000007305       0x62 libcom32.a(errno.o)
 .debug_line    0x0000000000007367      0x582 libcom32.a(serirq.o)
 .debug_line    0x00000000000078e9      0x4cb libcom32.a(malloc.o)
 .debug_line    0x0000000000007db4      0x37f libcom32.a(free.o)
 .debug_line    0x0000000000008133      0x339 libcom32.a(sysappend.o)
 .debug_line    0x000000000000846c      0x152 libcom32.a(kaboom.o)
 .debug_line    0x00000000000085be      0x174 libcom32.a(call16.o)
 .debug_line    0x0000000000008732      0x5bf libcom32.a(dmi.o)
 .debug_line    0x0000000000008cf1      0x3bd libcom32.a(getfssec.o)
 .debug_line    0x00000000000090ae       0x57 libcom32.a(sem_asm.o)
 .debug_line    0x0000000000009105      0x316 libcom32.a(semaphore.o)
 .debug_line    0x000000000000941b       0xaa libcom32.a(root_thread.o)
 .debug_line    0x00000000000094c5      0x2b4 libcom32.a(schedule.o)
 .debug_line    0x0000000000009779       0x6b libcom32.a(thread_asm.o)
 .debug_line    0x00000000000097e4      0x1cd libcom32.a(exit_thread.o)
 .debug_line    0x00000000000099b1       0xa5 /opt/syslinux/bios/com32/lib/libcom32core.a(memcpy.o)
 .debug_line    0x0000000000009a56       0xaa /opt/syslinux/bios/com32/lib/libcom32core.a(memset.o)
 .debug_line    0x0000000000009b00       0xae /opt/syslinux/bios/com32/lib/libcom32core.a(memcmp.o)
 .debug_line    0x0000000000009bae      0x101 /opt/syslinux/bios/com32/lib/libcom32core.a(printf.o)
 .debug_line    0x0000000000009caf       0xbd /opt/syslinux/bios/com32/lib/libcom32core.a(strncmp.o)
 .debug_line    0x0000000000009d6c       0xe5 /opt/syslinux/bios/com32/lib/libcom32core.a(vfprintf.o)
 .debug_line    0x0000000000009e51       0xa7 /opt/syslinux/bios/com32/lib/libcom32core.a(strlen.o)
 .debug_line    0x0000000000009ef8      0x6ab /opt/syslinux/bios/com32/lib/libcom32core.a(vsnprintf.o)
 .debug_line    0x000000000000a5a3      0x107 /opt/syslinux/bios/com32/lib/libcom32core.a(snprintf.o)
 .debug_line    0x000000000000a6aa       0x74 /opt/syslinux/bios/com32/lib/libcom32core.a(stpcpy.o)
 .debug_line    0x000000000000a71e       0x7a /opt/syslinux/bios/com32/lib/libcom32core.a(strcmp.o)
 .debug_line    0x000000000000a798       0xa2 /opt/syslinux/bios/com32/lib/libcom32core.a(strdup.o)
 .debug_line    0x000000000000a83a       0x87 /opt/syslinux/bios/com32/lib/libcom32core.a(strcpy.o)
 .debug_line    0x000000000000a8c1       0xb0 /opt/syslinux/bios/com32/lib/libcom32core.a(strncpy.o)
 .debug_line    0x000000000000a971       0x68 /opt/syslinux/bios/com32/lib/libcom32core.a(setjmp.o)
 .debug_line    0x000000000000a9d9      0x13a /opt/syslinux/bios/com32/lib/libcom32core.a(fopen.o)
 .debug_line    0x000000000000ab13      0x15e /opt/syslinux/bios/com32/lib/libcom32core.a(fread.o)
 .debug_line    0x000000000000ac71       0xc6 /opt/syslinux/bios/com32/lib/libcom32core.a(fread2.o)
 .debug_line    0x000000000000ad37       0xce /opt/syslinux/bios/com32/lib/libcom32core.a(puts.o)
 .debug_line    0x000000000000ae05       0xc9 /opt/syslinux/bios/com32/lib/libcom32core.a(strtoul.o)
 .debug_line    0x000000000000aece      0x2b8 /opt/syslinux/bios/com32/lib/libcom32core.a(strntoumax.o)
 .debug_line    0x000000000000b186       0xe7 /opt/syslinux/bios/com32/lib/libcom32core.a(strcasecmp.o)
 .debug_line    0x000000000000b26d      0x112 /opt/syslinux/bios/com32/lib/libcom32core.a(sprintf.o)
 .debug_line    0x000000000000b37f       0xdc /opt/syslinux/bios/com32/lib/libcom32core.a(strlcat.o)
 .debug_line    0x000000000000b45b       0x70 /opt/syslinux/bios/com32/lib/libcom32core.a(strchr.o)
 .debug_line    0x000000000000b4cb       0xc6 /opt/syslinux/bios/com32/lib/libcom32core.a(strlcpy.o)
 .debug_line    0x000000000000b591      0x128 /opt/syslinux/bios/com32/lib/libcom32core.a(strncasecmp.o)
 .debug_line    0x000000000000b6b9       0x6f /opt/syslinux/bios/com32/lib/libcom32core.a(ctypes.o)
 .debug_line    0x000000000000b728       0x8b /opt/syslinux/bios/com32/lib/libcom32core.a(fputs.o)
 .debug_line    0x000000000000b7b3       0xc7 /opt/syslinux/bios/com32/lib/libcom32core.a(fwrite2.o)
 .debug_line    0x000000000000b87a      0x15f /opt/syslinux/bios/com32/lib/libcom32core.a(fwrite.o)
 .debug_line    0x000000000000b9d9       0xab /opt/syslinux/bios/com32/lib/libcom32core.a(fgetc.o)
 .debug_line    0x000000000000ba84       0xd9 /opt/syslinux/bios/com32/lib/libcom32core.a(fclose.o)
 .debug_line    0x000000000000bb5d      0x16b /opt/syslinux/bios/com32/lib/libcom32core.a(lmalloc.o)
 .debug_line    0x000000000000bcc8      0x18f /opt/syslinux/bios/com32/lib/libcom32core.a(err_read.o)
 .debug_line    0x000000000000be57      0x190 /opt/syslinux/bios/com32/lib/libcom32core.a(err_write.o)
 .debug_line    0x000000000000bfe7      0x188 /opt/syslinux/bios/com32/lib/libcom32core.a(null_read.o)
 .debug_line    0x000000000000c16f      0x22c /opt/syslinux/bios/com32/lib/libcom32core.a(stdcon_write.o)
 .debug_line    0x000000000000c39b      0x1f7 /opt/syslinux/bios/com32/lib/libcom32core.a(memscan.o)
 .debug_line    0x000000000000c592       0x72 /opt/syslinux/bios/com32/lib/libcom32core.a(strrchr.o)
 .debug_line    0x000000000000c604       0x89 /opt/syslinux/bios/com32/lib/libcom32core.a(strcat.o)
 .debug_line    0x000000000000c68d       0x62 /opt/syslinux/bios/com32/lib/libcom32core.a(__ashldi3.o)
 .debug_line    0x000000000000c6ef       0xa0 /opt/syslinux/bios/com32/lib/libcom32core.a(__udivdi3.o)
 .debug_line    0x000000000000c78f       0x5c /opt/syslinux/bios/com32/lib/libcom32core.a(__negdi2.o)
 .debug_line    0x000000000000c7eb       0x62 /opt/syslinux/bios/com32/lib/libcom32core.a(__ashrdi3.o)
 .debug_line    0x000000000000c84d       0x62 /opt/syslinux/bios/com32/lib/libcom32core.a(__lshrdi3.o)
 .debug_line    0x000000000000c8af       0x65 /opt/syslinux/bios/com32/lib/libcom32core.a(__muldi3.o)
 .debug_line    0x000000000000c914      0x140 /opt/syslinux/bios/com32/lib/libcom32core.a(__udivmoddi4.o)
 .debug_line    0x000000000000ca54       0xa9 /opt/syslinux/bios/com32/lib/libcom32core.a(__umoddi3.o)
 .debug_line    0x000000000000cafd       0xe6 /opt/syslinux/bios/com32/lib/libcom32core.a(__divdi3.o)
 .debug_line    0x000000000000cbe3       0xe6 /opt/syslinux/bios/com32/lib/libcom32core.a(__moddi3.o)
 .debug_line    0x000000000000ccc9       0x73 /opt/syslinux/bios/com32/lib/libcom32core.a(debug.o)
 .debug_line    0x000000000000cd3c       0xc7 /opt/syslinux/bios/com32/lib/libcom32core.a(intcall.o)
 .debug_line    0x000000000000ce03       0xf0 /opt/syslinux/bios/com32/lib/libcom32core.a(farcall.o)
 .debug_line    0x000000000000cef3       0xd1 /opt/syslinux/bios/com32/lib/libcom32core.a(cfarcall.o)
 .debug_line    0x000000000000cfc4       0xac /opt/syslinux/bios/com32/lib/libcom32core.a(zeroregs.o)
 .debug_line    0x000000000000d070      0x228 /opt/syslinux/bios/com32/lib/libcom32core.a(argv.o)
 .debug_line    0x000000000000d298      0x164 /opt/syslinux/bios/com32/lib/libcom32core.a(sleep.o)
 .debug_line    0x000000000000d3fc      0x156 /opt/syslinux/bios/com32/lib/libcom32core.a(fileinfo.o)
 .debug_line    0x000000000000d552      0x2a6 /opt/syslinux/bios/com32/lib/libcom32core.a(opendev.o)
 .debug_line    0x000000000000d7f8      0x1b1 /opt/syslinux/bios/com32/lib/libcom32core.a(read.o)
 .debug_line    0x000000000000d9a9      0x1b2 /opt/syslinux/bios/com32/lib/libcom32core.a(write.o)
 .debug_line    0x000000000000db5b      0x184 /opt/syslinux/bios/com32/lib/libcom32core.a(ftell.o)
 .debug_line    0x000000000000dcdf      0x1f6 /opt/syslinux/bios/com32/lib/libcom32core.a(close.o)
 .debug_line    0x000000000000ded5      0x273 /opt/syslinux/bios/com32/lib/libcom32core.a(open.o)
 .debug_line    0x000000000000e148      0x27c /opt/syslinux/bios/com32/lib/libcom32core.a(fileread.o)
 .debug_line    0x000000000000e3c4      0x220 /opt/syslinux/bios/com32/lib/libcom32core.a(fileclose.o)
 .debug_line    0x000000000000e5e4      0x1d0 /opt/syslinux/bios/com32/lib/libcom32core.a(openmem.o)
 .debug_line    0x000000000000e7b4      0x1b8 /opt/syslinux/bios/com32/lib/libcom32core.a(isatty.o)
 .debug_line    0x000000000000e96c      0x1e1 /opt/syslinux/bios/com32/lib/libcom32core.a(fstat.o)
 .debug_line    0x000000000000eb4d       0x1d /opt/syslinux/bios/com32/lib/libcom32core.a(dprintf.o)
 .debug_line    0x000000000000eb6a       0x4c /opt/syslinux/bios/com32/lib/libcom32core.a(vdprintf.o)
 .debug_line    0x000000000000ebb6      0x179 /opt/syslinux/bios/com32/lib/libcom32core.a(idle.o)
 .debug_line    0x000000000000ed2f      0x1f7 /opt/syslinux/bios/com32/lib/libcom32core.a(exit.o)
 .debug_line    0x000000000000ef26      0xa4f /opt/syslinux/bios/com32/lib/libcom32core.a(common.o)
 .debug_line    0x000000000000f975      0x6da /opt/syslinux/bios/com32/lib/libcom32core.a(elf_module.o)
 .debug_line    0x000000000001004f      0x318 /opt/syslinux/bios/com32/lib/libcom32core.a(elfutils.o)
 .debug_line    0x0000000000010367      0x304 /opt/syslinux/bios/com32/lib/libcom32core.a(exec.o)
 .debug_line    0x000000000001066b      0x6f8 /opt/syslinux/bios/com32/lib/libcom32core.a(elf_module.o)
 .debug_line    0x0000000000010d63      0x31c libisolinux.a(rawcon.o)
 .debug_line    0x000000000001107f      0x2d9 libisolinux.a(localboot.o)
 .debug_line    0x0000000000011358      0x207 libisolinux.a(isolinux-c.o)

.debug_frame    0x0000000000000000     0x3508
 .debug_frame   0x0000000000000000        0x4 isolinux.o
 .debug_frame   0x0000000000000004       0x50 libcom32.a(writestr.o)
 .debug_frame   0x0000000000000054       0x34 libcom32.a(idle.o)
 .debug_frame   0x0000000000000088       0x24 libcom32.a(cleanup.o)
 .debug_frame   0x00000000000000ac       0x48 libcom32.a(init.o)
 .debug_frame   0x00000000000000f4      0x17c libcom32.a(conio.o)
 .debug_frame   0x0000000000000270       0x9c libcom32.a(writehex.o)
 .debug_frame   0x000000000000030c       0xdc libcom32.a(load_env32.o)
 .debug_frame   0x00000000000003e8       0x38 libcom32.a(getcwd.o)
 .debug_frame   0x0000000000000420       0x44 libcom32.a(readdir.o)
 .debug_frame   0x0000000000000464      0x1a8 libcom32.a(fs.o)
 .debug_frame   0x000000000000060c      0x1c0 libcom32.a(iso9660.o)
 .debug_frame   0x00000000000007cc       0xf4 libcom32.a(susp_rr.o)
 .debug_frame   0x00000000000008c0       0xe4 libcom32.a(chdir.o)
 .debug_frame   0x00000000000009a4       0x60 libcom32.a(diskio.o)
 .debug_frame   0x0000000000000a04      0x130 libcom32.a(diskio_bios.o)
 .debug_frame   0x0000000000000b34       0x24 libcom32.a(nonextextent.o)
 .debug_frame   0x0000000000000b58       0x4c libcom32.a(mangle.o)
 .debug_frame   0x0000000000000ba4       0x6c libcom32.a(searchconfig.o)
 .debug_frame   0x0000000000000c10       0x24 libcom32.a(close.o)
 .debug_frame   0x0000000000000c34       0xf8 libcom32.a(cache.o)
 .debug_frame   0x0000000000000d2c       0x8c libcom32.a(rllpack.o)
 .debug_frame   0x0000000000000db8      0x138 libcom32.a(hello.o)
 .debug_frame   0x0000000000000ef0       0xd8 libcom32.a(graphics.o)
 .debug_frame   0x0000000000000fc8       0x9c libcom32.a(font.o)
 .debug_frame   0x0000000000001064      0x304 libcom32.a(bios.o)
 .debug_frame   0x0000000000001368       0x38 libcom32.a(path.o)
 .debug_frame   0x00000000000013a0       0x24 libcom32.a(init.o)
 .debug_frame   0x00000000000013c4      0x174 libcom32.a(serirq.o)
 .debug_frame   0x0000000000001538      0x148 libcom32.a(malloc.o)
 .debug_frame   0x0000000000001680       0xcc libcom32.a(free.o)
 .debug_frame   0x000000000000174c       0xe0 libcom32.a(sysappend.o)
 .debug_frame   0x000000000000182c       0x24 libcom32.a(kaboom.o)
 .debug_frame   0x0000000000001850       0x50 libcom32.a(call16.o)
 .debug_frame   0x00000000000018a0       0xc8 libcom32.a(dmi.o)
 .debug_frame   0x0000000000001968       0x60 libcom32.a(getfssec.o)
 .debug_frame   0x00000000000019c8       0x74 libcom32.a(semaphore.o)
 .debug_frame   0x0000000000001a3c       0x60 libcom32.a(schedule.o)
 .debug_frame   0x0000000000001a9c       0x2c libcom32.a(exit_thread.o)
 .debug_frame   0x0000000000001ac8       0x40 /opt/syslinux/bios/com32/lib/libcom32core.a(memcpy.o)
 .debug_frame   0x0000000000001b08       0x40 /opt/syslinux/bios/com32/lib/libcom32core.a(memset.o)
 .debug_frame   0x0000000000001b48       0x38 /opt/syslinux/bios/com32/lib/libcom32core.a(memcmp.o)
 .debug_frame   0x0000000000001b80       0x40 /opt/syslinux/bios/com32/lib/libcom32core.a(printf.o)
 .debug_frame   0x0000000000001bc0       0x40 /opt/syslinux/bios/com32/lib/libcom32core.a(strncmp.o)
 .debug_frame   0x0000000000001c00       0x64 /opt/syslinux/bios/com32/lib/libcom32core.a(vfprintf.o)
 .debug_frame   0x0000000000001c64       0x24 /opt/syslinux/bios/com32/lib/libcom32core.a(strlen.o)
 .debug_frame   0x0000000000001c88       0x98 /opt/syslinux/bios/com32/lib/libcom32core.a(vsnprintf.o)
 .debug_frame   0x0000000000001d20       0x44 /opt/syslinux/bios/com32/lib/libcom32core.a(snprintf.o)
 .debug_frame   0x0000000000001d64       0x38 /opt/syslinux/bios/com32/lib/libcom32core.a(stpcpy.o)
 .debug_frame   0x0000000000001d9c       0x40 /opt/syslinux/bios/com32/lib/libcom32core.a(strcmp.o)
 .debug_frame   0x0000000000001ddc       0x58 /opt/syslinux/bios/com32/lib/libcom32core.a(strdup.o)
 .debug_frame   0x0000000000001e34       0x30 /opt/syslinux/bios/com32/lib/libcom32core.a(strcpy.o)
 .debug_frame   0x0000000000001e64       0x38 /opt/syslinux/bios/com32/lib/libcom32core.a(strncpy.o)
 .debug_frame   0x0000000000001e9c       0x5c /opt/syslinux/bios/com32/lib/libcom32core.a(fopen.o)
 .debug_frame   0x0000000000001ef8       0x60 /opt/syslinux/bios/com32/lib/libcom32core.a(fread.o)
 .debug_frame   0x0000000000001f58       0x48 /opt/syslinux/bios/com32/lib/libcom32core.a(fread2.o)
 .debug_frame   0x0000000000001fa0       0x40 /opt/syslinux/bios/com32/lib/libcom32core.a(puts.o)
 .debug_frame   0x0000000000001fe0       0x44 /opt/syslinux/bios/com32/lib/libcom32core.a(strtoul.o)
 .debug_frame   0x0000000000002024       0x50 /opt/syslinux/bios/com32/lib/libcom32core.a(strntoumax.o)
 .debug_frame   0x0000000000002074       0x58 /opt/syslinux/bios/com32/lib/libcom32core.a(strcasecmp.o)
 .debug_frame   0x00000000000020cc       0x44 /opt/syslinux/bios/com32/lib/libcom32core.a(sprintf.o)
 .debug_frame   0x0000000000002110       0x38 /opt/syslinux/bios/com32/lib/libcom32core.a(strlcat.o)
 .debug_frame   0x0000000000002148       0x24 /opt/syslinux/bios/com32/lib/libcom32core.a(strchr.o)
 .debug_frame   0x000000000000216c       0x38 /opt/syslinux/bios/com32/lib/libcom32core.a(strlcpy.o)
 .debug_frame   0x00000000000021a4       0x5c /opt/syslinux/bios/com32/lib/libcom32core.a(strncasecmp.o)
 .debug_frame   0x0000000000002200       0x58 /opt/syslinux/bios/com32/lib/libcom32core.a(fputs.o)
 .debug_frame   0x0000000000002258       0x48 /opt/syslinux/bios/com32/lib/libcom32core.a(fwrite2.o)
 .debug_frame   0x00000000000022a0       0x60 /opt/syslinux/bios/com32/lib/libcom32core.a(fwrite.o)
 .debug_frame   0x0000000000002300       0x4c /opt/syslinux/bios/com32/lib/libcom32core.a(fgetc.o)
 .debug_frame   0x000000000000234c       0x40 /opt/syslinux/bios/com32/lib/libcom32core.a(fclose.o)
 .debug_frame   0x000000000000238c       0x6c /opt/syslinux/bios/com32/lib/libcom32core.a(lmalloc.o)
 .debug_frame   0x00000000000023f8       0x34 /opt/syslinux/bios/com32/lib/libcom32core.a(err_read.o)
 .debug_frame   0x000000000000242c       0x34 /opt/syslinux/bios/com32/lib/libcom32core.a(err_write.o)
 .debug_frame   0x0000000000002460       0x24 /opt/syslinux/bios/com32/lib/libcom32core.a(null_read.o)
 .debug_frame   0x0000000000002484       0x68 /opt/syslinux/bios/com32/lib/libcom32core.a(stdcon_write.o)
 .debug_frame   0x00000000000024ec       0xb8 /opt/syslinux/bios/com32/lib/libcom32core.a(memscan.o)
 .debug_frame   0x00000000000025a4       0x30 /opt/syslinux/bios/com32/lib/libcom32core.a(strrchr.o)
 .debug_frame   0x00000000000025d4       0x58 /opt/syslinux/bios/com32/lib/libcom32core.a(strcat.o)
 .debug_frame   0x000000000000262c       0x50 /opt/syslinux/bios/com32/lib/libcom32core.a(__udivdi3.o)
 .debug_frame   0x000000000000267c       0x40 /opt/syslinux/bios/com32/lib/libcom32core.a(__udivmoddi4.o)
 .debug_frame   0x00000000000026bc       0x50 /opt/syslinux/bios/com32/lib/libcom32core.a(__umoddi3.o)
 .debug_frame   0x000000000000270c       0x50 /opt/syslinux/bios/com32/lib/libcom32core.a(__divdi3.o)
 .debug_frame   0x000000000000275c       0x50 /opt/syslinux/bios/com32/lib/libcom32core.a(__moddi3.o)
 .debug_frame   0x00000000000027ac       0x40 /opt/syslinux/bios/com32/lib/libcom32core.a(debug.o)
 .debug_frame   0x00000000000027ec       0x4c /opt/syslinux/bios/com32/lib/libcom32core.a(intcall.o)
 .debug_frame   0x0000000000002838       0x60 /opt/syslinux/bios/com32/lib/libcom32core.a(farcall.o)
 .debug_frame   0x0000000000002898       0x4c /opt/syslinux/bios/com32/lib/libcom32core.a(cfarcall.o)
 .debug_frame   0x00000000000028e4       0x60 /opt/syslinux/bios/com32/lib/libcom32core.a(argv.o)
 .debug_frame   0x0000000000002944       0x74 /opt/syslinux/bios/com32/lib/libcom32core.a(sleep.o)
 .debug_frame   0x00000000000029b8       0x60 /opt/syslinux/bios/com32/lib/libcom32core.a(opendev.o)
 .debug_frame   0x0000000000002a18       0x50 /opt/syslinux/bios/com32/lib/libcom32core.a(read.o)
 .debug_frame   0x0000000000002a68       0x50 /opt/syslinux/bios/com32/lib/libcom32core.a(write.o)
 .debug_frame   0x0000000000002ab8       0x34 /opt/syslinux/bios/com32/lib/libcom32core.a(ftell.o)
 .debug_frame   0x0000000000002aec       0x5c /opt/syslinux/bios/com32/lib/libcom32core.a(close.o)
 .debug_frame   0x0000000000002b48       0x5c /opt/syslinux/bios/com32/lib/libcom32core.a(open.o)
 .debug_frame   0x0000000000002ba4       0x8c /opt/syslinux/bios/com32/lib/libcom32core.a(fileread.o)
 .debug_frame   0x0000000000002c30       0x40 /opt/syslinux/bios/com32/lib/libcom32core.a(fileclose.o)
 .debug_frame   0x0000000000002c70       0x50 /opt/syslinux/bios/com32/lib/libcom32core.a(openmem.o)
 .debug_frame   0x0000000000002cc0       0x34 /opt/syslinux/bios/com32/lib/libcom32core.a(isatty.o)
 .debug_frame   0x0000000000002cf4       0x40 /opt/syslinux/bios/com32/lib/libcom32core.a(fstat.o)
 .debug_frame   0x0000000000002d34       0x5c /opt/syslinux/bios/com32/lib/libcom32core.a(idle.o)
 .debug_frame   0x0000000000002d90       0x74 /opt/syslinux/bios/com32/lib/libcom32core.a(exit.o)
 .debug_frame   0x0000000000002e04      0x3dc /opt/syslinux/bios/com32/lib/libcom32core.a(common.o)
 .debug_frame   0x00000000000031e0       0xd8 /opt/syslinux/bios/com32/lib/libcom32core.a(elf_module.o)
 .debug_frame   0x00000000000032b8       0x98 /opt/syslinux/bios/com32/lib/libcom32core.a(elfutils.o)
 .debug_frame   0x0000000000003350       0x7c /opt/syslinux/bios/com32/lib/libcom32core.a(exec.o)
 .debug_frame   0x00000000000033cc       0x88 /opt/syslinux/bios/com32/lib/libcom32core.a(elf_module.o)
 .debug_frame   0x0000000000003454       0x48 libisolinux.a(rawcon.o)
 .debug_frame   0x000000000000349c       0x48 libisolinux.a(localboot.o)
 .debug_frame   0x00000000000034e4       0x24 libisolinux.a(isolinux-c.o)

.debug_loc      0x0000000000000000     0xccf7
 .debug_loc     0x0000000000000000       0x10 isolinux.o
 .debug_loc     0x0000000000000010       0x3f libcom32.a(writestr.o)
 .debug_loc     0x000000000000004f      0x179 libcom32.a(init.o)
 .debug_loc     0x00000000000001c8      0x436 libcom32.a(conio.o)
 .debug_loc     0x00000000000005fe      0x159 libcom32.a(writehex.o)
 .debug_loc     0x0000000000000757      0x448 libcom32.a(load_env32.o)
 .debug_loc     0x0000000000000b9f       0xb4 libcom32.a(getcwd.o)
 .debug_loc     0x0000000000000c53      0x12d libcom32.a(readdir.o)
 .debug_loc     0x0000000000000d80      0x93d libcom32.a(fs.o)
 .debug_loc     0x00000000000016bd      0x7a3 libcom32.a(iso9660.o)
 .debug_loc     0x0000000000001e60      0x9e3 libcom32.a(susp_rr.o)
 .debug_loc     0x0000000000002843      0x556 libcom32.a(chdir.o)
 .debug_loc     0x0000000000002d99       0xa4 libcom32.a(diskio.o)
 .debug_loc     0x0000000000002e3d      0x97c libcom32.a(diskio_bios.o)
 .debug_loc     0x00000000000037b9       0x21 libcom32.a(nonextextent.o)
 .debug_loc     0x00000000000037da      0x173 libcom32.a(mangle.o)
 .debug_loc     0x000000000000394d       0xea libcom32.a(searchconfig.o)
 .debug_loc     0x0000000000003a37       0x2c libcom32.a(close.o)
 .debug_loc     0x0000000000003a63      0x32d libcom32.a(cache.o)
 .debug_loc     0x0000000000003d90      0x3a4 libcom32.a(rllpack.o)
 .debug_loc     0x0000000000004134      0x143 libcom32.a(hello.o)
 .debug_loc     0x0000000000004277      0x5dd libcom32.a(graphics.o)
 .debug_loc     0x0000000000004854       0xb1 libcom32.a(font.o)
 .debug_loc     0x0000000000004905      0xa69 libcom32.a(bios.o)
 .debug_loc     0x000000000000536e       0xbe libcom32.a(path.o)
 .debug_loc     0x000000000000542c      0x639 libcom32.a(serirq.o)
 .debug_loc     0x0000000000005a65      0x660 libcom32.a(malloc.o)
 .debug_loc     0x00000000000060c5      0x235 libcom32.a(free.o)
 .debug_loc     0x00000000000062fa      0x20e libcom32.a(sysappend.o)
 .debug_loc     0x0000000000006508       0x6e libcom32.a(call16.o)
 .debug_loc     0x0000000000006576      0x894 libcom32.a(dmi.o)
 .debug_loc     0x0000000000006e0a      0x339 libcom32.a(getfssec.o)
 .debug_loc     0x0000000000007143      0x1b7 libcom32.a(semaphore.o)
 .debug_loc     0x00000000000072fa       0xf4 libcom32.a(schedule.o)
 .debug_loc     0x00000000000073ee       0x65 /opt/syslinux/bios/com32/lib/libcom32core.a(memcpy.o)
 .debug_loc     0x0000000000007453       0x9c /opt/syslinux/bios/com32/lib/libcom32core.a(memset.o)
 .debug_loc     0x00000000000074ef       0xd4 /opt/syslinux/bios/com32/lib/libcom32core.a(memcmp.o)
 .debug_loc     0x00000000000075c3       0x20 /opt/syslinux/bios/com32/lib/libcom32core.a(printf.o)
 .debug_loc     0x00000000000075e3       0xf2 /opt/syslinux/bios/com32/lib/libcom32core.a(strncmp.o)
 .debug_loc     0x00000000000076d5       0xb1 /opt/syslinux/bios/com32/lib/libcom32core.a(vfprintf.o)
 .debug_loc     0x0000000000007786       0x3f /opt/syslinux/bios/com32/lib/libcom32core.a(strlen.o)
 .debug_loc     0x00000000000077c5      0xec2 /opt/syslinux/bios/com32/lib/libcom32core.a(vsnprintf.o)
 .debug_loc     0x0000000000008687       0x2c /opt/syslinux/bios/com32/lib/libcom32core.a(snprintf.o)
 .debug_loc     0x00000000000086b3       0x80 /opt/syslinux/bios/com32/lib/libcom32core.a(stpcpy.o)
 .debug_loc     0x0000000000008733       0xf3 /opt/syslinux/bios/com32/lib/libcom32core.a(strcmp.o)
 .debug_loc     0x0000000000008826       0x3d /opt/syslinux/bios/com32/lib/libcom32core.a(strdup.o)
 .debug_loc     0x0000000000008863       0x9e /opt/syslinux/bios/com32/lib/libcom32core.a(strcpy.o)
 .debug_loc     0x0000000000008901       0xdf /opt/syslinux/bios/com32/lib/libcom32core.a(strncpy.o)
 .debug_loc     0x00000000000089e0       0xe7 /opt/syslinux/bios/com32/lib/libcom32core.a(fopen.o)
 .debug_loc     0x0000000000008ac7       0xdb /opt/syslinux/bios/com32/lib/libcom32core.a(fread.o)
 .debug_loc     0x0000000000008ba2       0x6e /opt/syslinux/bios/com32/lib/libcom32core.a(fread2.o)
 .debug_loc     0x0000000000008c10       0x21 /opt/syslinux/bios/com32/lib/libcom32core.a(puts.o)
 .debug_loc     0x0000000000008c31       0x63 /opt/syslinux/bios/com32/lib/libcom32core.a(strtoul.o)
 .debug_loc     0x0000000000008c94      0x26e /opt/syslinux/bios/com32/lib/libcom32core.a(strntoumax.o)
 .debug_loc     0x0000000000008f02      0x119 /opt/syslinux/bios/com32/lib/libcom32core.a(strcasecmp.o)
 .debug_loc     0x000000000000901b       0x2c /opt/syslinux/bios/com32/lib/libcom32core.a(sprintf.o)
 .debug_loc     0x0000000000009047      0x104 /opt/syslinux/bios/com32/lib/libcom32core.a(strlcat.o)
 .debug_loc     0x000000000000914b       0x1e /opt/syslinux/bios/com32/lib/libcom32core.a(strchr.o)
 .debug_loc     0x0000000000009169      0x10e /opt/syslinux/bios/com32/lib/libcom32core.a(strlcpy.o)
 .debug_loc     0x0000000000009277      0x118 /opt/syslinux/bios/com32/lib/libcom32core.a(strncasecmp.o)
 .debug_loc     0x000000000000938f       0x4a /opt/syslinux/bios/com32/lib/libcom32core.a(fputs.o)
 .debug_loc     0x00000000000093d9       0x6e /opt/syslinux/bios/com32/lib/libcom32core.a(fwrite2.o)
 .debug_loc     0x0000000000009447       0xdb /opt/syslinux/bios/com32/lib/libcom32core.a(fwrite.o)
 .debug_loc     0x0000000000009522       0x2c /opt/syslinux/bios/com32/lib/libcom32core.a(fgetc.o)
 .debug_loc     0x000000000000954e       0x2e /opt/syslinux/bios/com32/lib/libcom32core.a(fclose.o)
 .debug_loc     0x000000000000957c       0x81 /opt/syslinux/bios/com32/lib/libcom32core.a(lmalloc.o)
 .debug_loc     0x00000000000095fd       0x21 /opt/syslinux/bios/com32/lib/libcom32core.a(err_read.o)
 .debug_loc     0x000000000000961e       0x21 /opt/syslinux/bios/com32/lib/libcom32core.a(err_write.o)
 .debug_loc     0x000000000000963f       0x21 /opt/syslinux/bios/com32/lib/libcom32core.a(null_read.o)
 .debug_loc     0x0000000000009660       0xc2 /opt/syslinux/bios/com32/lib/libcom32core.a(stdcon_write.o)
 .debug_loc     0x0000000000009722      0x16c /opt/syslinux/bios/com32/lib/libcom32core.a(memscan.o)
 .debug_loc     0x000000000000988e       0x3d /opt/syslinux/bios/com32/lib/libcom32core.a(strrchr.o)
 .debug_loc     0x00000000000098cb       0x3f /opt/syslinux/bios/com32/lib/libcom32core.a(strcat.o)
 .debug_loc     0x000000000000990a       0x28 /opt/syslinux/bios/com32/lib/libcom32core.a(__udivdi3.o)
 .debug_loc     0x0000000000009932      0x104 /opt/syslinux/bios/com32/lib/libcom32core.a(__udivmoddi4.o)
 .debug_loc     0x0000000000009a36       0x28 /opt/syslinux/bios/com32/lib/libcom32core.a(__umoddi3.o)
 .debug_loc     0x0000000000009a5e       0xab /opt/syslinux/bios/com32/lib/libcom32core.a(__divdi3.o)
 .debug_loc     0x0000000000009b09       0x83 /opt/syslinux/bios/com32/lib/libcom32core.a(__moddi3.o)
 .debug_loc     0x0000000000009b8c       0x42 /opt/syslinux/bios/com32/lib/libcom32core.a(debug.o)
 .debug_loc     0x0000000000009bce       0x63 /opt/syslinux/bios/com32/lib/libcom32core.a(intcall.o)
 .debug_loc     0x0000000000009c31       0x6e /opt/syslinux/bios/com32/lib/libcom32core.a(farcall.o)
 .debug_loc     0x0000000000009c9f       0x63 /opt/syslinux/bios/com32/lib/libcom32core.a(cfarcall.o)
 .debug_loc     0x0000000000009d02      0x1c4 /opt/syslinux/bios/com32/lib/libcom32core.a(argv.o)
 .debug_loc     0x0000000000009ec6       0x60 /opt/syslinux/bios/com32/lib/libcom32core.a(sleep.o)
 .debug_loc     0x0000000000009f26      0x149 /opt/syslinux/bios/com32/lib/libcom32core.a(opendev.o)
 .debug_loc     0x000000000000a06f       0x8f /opt/syslinux/bios/com32/lib/libcom32core.a(read.o)
 .debug_loc     0x000000000000a0fe       0x8f /opt/syslinux/bios/com32/lib/libcom32core.a(write.o)
 .debug_loc     0x000000000000a18d       0x71 /opt/syslinux/bios/com32/lib/libcom32core.a(ftell.o)
 .debug_loc     0x000000000000a1fe       0xb9 /opt/syslinux/bios/com32/lib/libcom32core.a(close.o)
 .debug_loc     0x000000000000a2b7       0x3c /opt/syslinux/bios/com32/lib/libcom32core.a(open.o)
 .debug_loc     0x000000000000a2f3      0x160 /opt/syslinux/bios/com32/lib/libcom32core.a(fileread.o)
 .debug_loc     0x000000000000a453       0x21 /opt/syslinux/bios/com32/lib/libcom32core.a(fileclose.o)
 .debug_loc     0x000000000000a474       0x9f /opt/syslinux/bios/com32/lib/libcom32core.a(openmem.o)
 .debug_loc     0x000000000000a513       0x34 /opt/syslinux/bios/com32/lib/libcom32core.a(isatty.o)
 .debug_loc     0x000000000000a547       0x4a /opt/syslinux/bios/com32/lib/libcom32core.a(fstat.o)
 .debug_loc     0x000000000000a591       0x60 /opt/syslinux/bios/com32/lib/libcom32core.a(exit.o)
 .debug_loc     0x000000000000a5f1     0x10f5 /opt/syslinux/bios/com32/lib/libcom32core.a(common.o)
 .debug_loc     0x000000000000b6e6      0x90d /opt/syslinux/bios/com32/lib/libcom32core.a(elf_module.o)
 .debug_loc     0x000000000000bff3      0x28a /opt/syslinux/bios/com32/lib/libcom32core.a(elfutils.o)
 .debug_loc     0x000000000000c27d      0x200 /opt/syslinux/bios/com32/lib/libcom32core.a(exec.o)
 .debug_loc     0x000000000000c47d      0x74f /opt/syslinux/bios/com32/lib/libcom32core.a(elf_module.o)
 .debug_loc     0x000000000000cbcc       0xba libisolinux.a(rawcon.o)
 .debug_loc     0x000000000000cc86       0x71 libisolinux.a(localboot.o)

.debug_ranges   0x0000000000000000      0x7a8
 .debug_ranges  0x0000000000000000       0x20 libcom32.a(writestr.o)
 .debug_ranges  0x0000000000000020       0x90 libcom32.a(conio.o)
 .debug_ranges  0x00000000000000b0       0x38 libcom32.a(load_env32.o)
 .debug_ranges  0x00000000000000e8       0x80 libcom32.a(fs.o)
 .debug_ranges  0x0000000000000168       0x38 libcom32.a(iso9660.o)
 .debug_ranges  0x00000000000001a0       0x60 libcom32.a(susp_rr.o)
 .debug_ranges  0x0000000000000200       0x40 libcom32.a(chdir.o)
 .debug_ranges  0x0000000000000240       0x60 libcom32.a(diskio_bios.o)
 .debug_ranges  0x00000000000002a0       0x48 libcom32.a(graphics.o)
 .debug_ranges  0x00000000000002e8       0x58 libcom32.a(bios.o)
 .debug_ranges  0x0000000000000340      0x120 libcom32.a(serirq.o)
 .debug_ranges  0x0000000000000460       0xb8 libcom32.a(dmi.o)
 .debug_ranges  0x0000000000000518       0x30 libcom32.a(getfssec.o)
 .debug_ranges  0x0000000000000548       0x30 libcom32.a(schedule.o)
 .debug_ranges  0x0000000000000578       0x30 /opt/syslinux/bios/com32/lib/libcom32core.a(vsnprintf.o)
 .debug_ranges  0x00000000000005a8       0x18 /opt/syslinux/bios/com32/lib/libcom32core.a(strntoumax.o)
 .debug_ranges  0x00000000000005c0       0x30 /opt/syslinux/bios/com32/lib/libcom32core.a(strcasecmp.o)
 .debug_ranges  0x00000000000005f0       0x30 /opt/syslinux/bios/com32/lib/libcom32core.a(strncasecmp.o)
 .debug_ranges  0x0000000000000620       0x90 /opt/syslinux/bios/com32/lib/libcom32core.a(common.o)
 .debug_ranges  0x00000000000006b0       0x30 /opt/syslinux/bios/com32/lib/libcom32core.a(elf_module.o)
 .debug_ranges  0x00000000000006e0       0xc8 /opt/syslinux/bios/com32/lib/libcom32core.a(elf_module.o)

.debug_str      0x0000000000000000     0x49ac
 .debug_str     0x0000000000000000      0x4e5 libcom32.a(writestr.o)
                                        0x5ad (size before relaxing)
 .debug_str     0x00000000000004e5      0x1bf libcom32.a(idle.o)
                                        0x724 (size before relaxing)
 .debug_str     0x00000000000006a4       0x82 libcom32.a(cleanup.o)
                                        0x70e (size before relaxing)
 .debug_str     0x0000000000000726      0x2ad libcom32.a(init.o)
                                        0x9e8 (size before relaxing)
 .debug_str     0x00000000000009d3      0x339 libcom32.a(conio.o)
                                        0xcb8 (size before relaxing)
 .debug_str     0x0000000000000d0c       0x50 libcom32.a(writehex.o)
                                        0x5dc (size before relaxing)
 .debug_str     0x0000000000000d5c      0x704 libcom32.a(load_env32.o)
                                       0x123e (size before relaxing)
 .debug_str     0x0000000000001460       0x26 libcom32.a(getcwd.o)
                                        0x819 (size before relaxing)
 .debug_str     0x0000000000001486       0x87 libcom32.a(readdir.o)
                                        0x878 (size before relaxing)
 .debug_str     0x000000000000150d      0x153 libcom32.a(fs.o)
                                        0xc82 (size before relaxing)
 .debug_str     0x0000000000001660      0x25f libcom32.a(iso9660.o)
                                        0xca9 (size before relaxing)
 .debug_str     0x00000000000018bf      0x1da libcom32.a(susp_rr.o)
                                        0xb1d (size before relaxing)
 .debug_str     0x0000000000001a99       0x5c libcom32.a(chdir.o)
                                        0x8ef (size before relaxing)
 .debug_str     0x0000000000001af5       0x37 libcom32.a(diskio.o)
                                        0x9b8 (size before relaxing)
 .debug_str     0x0000000000001b2c      0x1b5 libcom32.a(diskio_bios.o)
                                        0xa09 (size before relaxing)
 .debug_str     0x0000000000001ce1       0x34 libcom32.a(nonextextent.o)
                                        0x814 (size before relaxing)
 .debug_str     0x0000000000001d15       0x46 libcom32.a(mangle.o)
                                        0x826 (size before relaxing)
 .debug_str     0x0000000000001d5b       0x31 libcom32.a(searchconfig.o)
                                        0x9de (size before relaxing)
 .debug_str     0x0000000000001d8c       0x35 libcom32.a(close.o)
                                        0x81f (size before relaxing)
 .debug_str     0x0000000000001dc1       0x62 libcom32.a(cache.o)
                                        0x881 (size before relaxing)
 .debug_str     0x0000000000001e23       0x29 libcom32.a(pmapi.o)
                                        0x98b (size before relaxing)
 .debug_str     0x0000000000001e4c       0x39 libcom32.a(rllpack.o)
                                        0x339 (size before relaxing)
 .debug_str     0x0000000000001e85       0x54 libcom32.a(hello.o)
                                        0x679 (size before relaxing)
 .debug_str     0x0000000000001ed9      0x164 libcom32.a(graphics.o)
                                        0xbc2 (size before relaxing)
 .debug_str     0x000000000000203d       0x6a libcom32.a(font.o)
                                        0xc7b (size before relaxing)
 .debug_str     0x00000000000020a7      0x7f0 libcom32.a(bios.o)
                                       0x1556 (size before relaxing)
 .debug_str     0x0000000000002897       0x2a libcom32.a(path.o)
                                        0x9d3 (size before relaxing)
 .debug_str     0x00000000000028c1       0x1a libcom32.a(init.o)
                                        0x9ad (size before relaxing)
 .debug_str     0x00000000000028db       0x2f libcom32.a(lzo1x_f2.o)
                                         0x47 (size before relaxing)
 .debug_str     0x000000000000290a       0x1b libcom32.a(errno.o)
                                        0x1bf (size before relaxing)
 .debug_str     0x0000000000002925      0x18b libcom32.a(serirq.o)
                                        0xb40 (size before relaxing)
 .debug_str     0x0000000000002ab0       0x82 libcom32.a(malloc.o)
                                        0xb08 (size before relaxing)
 .debug_str     0x0000000000002b32       0x66 libcom32.a(free.o)
                                        0x971 (size before relaxing)
 .debug_str     0x0000000000002b98       0xab libcom32.a(sysappend.o)
                                        0xa42 (size before relaxing)
 .debug_str     0x0000000000002c43       0x1c libcom32.a(kaboom.o)
                                        0x585 (size before relaxing)
 .debug_str     0x0000000000002c5f       0x2e libcom32.a(call16.o)
                                        0x719 (size before relaxing)
 .debug_str     0x0000000000002c8d      0x1b8 libcom32.a(dmi.o)
                                        0x93c (size before relaxing)
 .debug_str     0x0000000000002e45       0x81 libcom32.a(getfssec.o)
                                        0x898 (size before relaxing)
 .debug_str     0x0000000000002ec6       0x24 libcom32.a(sem_asm.o)
                                         0x4a (size before relaxing)
 .debug_str     0x0000000000002eea       0x9a libcom32.a(semaphore.o)
                                        0x3df (size before relaxing)
 .debug_str     0x0000000000002f84       0x36 libcom32.a(root_thread.o)
                                        0x35d (size before relaxing)
 .debug_str     0x0000000000002fba       0x51 libcom32.a(schedule.o)
                                        0x85a (size before relaxing)
 .debug_str     0x000000000000300b       0x27 libcom32.a(thread_asm.o)
                                         0x4d (size before relaxing)
 .debug_str     0x0000000000003032       0x36 libcom32.a(exit_thread.o)
                                        0x689 (size before relaxing)
 .debug_str     0x0000000000003068      0x1ca /opt/syslinux/bios/com32/lib/libcom32core.a(memcpy.o)
                                        0x24f (size before relaxing)
 .debug_str     0x0000000000003232       0x21 /opt/syslinux/bios/com32/lib/libcom32core.a(memset.o)
                                        0x24f (size before relaxing)
 .debug_str     0x0000000000003253       0x21 /opt/syslinux/bios/com32/lib/libcom32core.a(memcmp.o)
                                        0x1fc (size before relaxing)
 .debug_str     0x0000000000003274       0x4b /opt/syslinux/bios/com32/lib/libcom32core.a(printf.o)
                                        0x23a (size before relaxing)
 .debug_str     0x00000000000032bf       0x22 /opt/syslinux/bios/com32/lib/libcom32core.a(strncmp.o)
                                        0x203 (size before relaxing)
 .debug_str     0x00000000000032e1       0x3c /opt/syslinux/bios/com32/lib/libcom32core.a(vfprintf.o)
                                        0x2c4 (size before relaxing)
 .debug_str     0x000000000000331d       0x21 /opt/syslinux/bios/com32/lib/libcom32core.a(strlen.o)
                                        0x1f3 (size before relaxing)
 .debug_str     0x000000000000333e      0x15e /opt/syslinux/bios/com32/lib/libcom32core.a(vsnprintf.o)
                                        0x40d (size before relaxing)
 .debug_str     0x000000000000349c       0x23 /opt/syslinux/bios/com32/lib/libcom32core.a(snprintf.o)
                                        0x238 (size before relaxing)
 .debug_str     0x00000000000034bf       0x28 /opt/syslinux/bios/com32/lib/libcom32core.a(stpcpy.o)
                                        0x1ec (size before relaxing)
 .debug_str     0x00000000000034e7       0x21 /opt/syslinux/bios/com32/lib/libcom32core.a(strcmp.o)
                                        0x1fa (size before relaxing)
 .debug_str     0x0000000000003508       0x21 /opt/syslinux/bios/com32/lib/libcom32core.a(strdup.o)
                                        0x1f3 (size before relaxing)
 .debug_str     0x0000000000003529       0x21 /opt/syslinux/bios/com32/lib/libcom32core.a(strcpy.o)
                                        0x1ec (size before relaxing)
 .debug_str     0x000000000000354a       0x22 /opt/syslinux/bios/com32/lib/libcom32core.a(strncpy.o)
                                        0x1f5 (size before relaxing)
 .debug_str     0x000000000000356c       0x26 /opt/syslinux/bios/com32/lib/libcom32core.a(setjmp.o)
                                         0x51 (size before relaxing)
 .debug_str     0x0000000000003592       0x31 /opt/syslinux/bios/com32/lib/libcom32core.a(fopen.o)
                                        0x29d (size before relaxing)
 .debug_str     0x00000000000035c3       0x27 /opt/syslinux/bios/com32/lib/libcom32core.a(fread.o)
                                        0x2a8 (size before relaxing)
 .debug_str     0x00000000000035ea       0x27 /opt/syslinux/bios/com32/lib/libcom32core.a(fread2.o)
                                        0x212 (size before relaxing)
 .debug_str     0x0000000000003611       0x25 /opt/syslinux/bios/com32/lib/libcom32core.a(puts.o)
                                        0x20b (size before relaxing)
 .debug_str     0x0000000000003636       0x41 /opt/syslinux/bios/com32/lib/libcom32core.a(strtoul.o)
                                        0x27f (size before relaxing)
 .debug_str     0x0000000000003677       0xa8 /opt/syslinux/bios/com32/lib/libcom32core.a(strntoumax.o)
                                        0x30c (size before relaxing)
 .debug_str     0x000000000000371f       0x40 /opt/syslinux/bios/com32/lib/libcom32core.a(strcasecmp.o)
                                        0x28c (size before relaxing)
 .debug_str     0x000000000000375f       0x22 /opt/syslinux/bios/com32/lib/libcom32core.a(sprintf.o)
                                        0x2ae (size before relaxing)
 .debug_str     0x0000000000003781       0x2a /opt/syslinux/bios/com32/lib/libcom32core.a(strlcat.o)
                                        0x200 (size before relaxing)
 .debug_str     0x00000000000037ab       0x21 /opt/syslinux/bios/com32/lib/libcom32core.a(strchr.o)
                                        0x1ec (size before relaxing)
 .debug_str     0x00000000000037cc       0x2a /opt/syslinux/bios/com32/lib/libcom32core.a(strlcpy.o)
                                        0x200 (size before relaxing)
 .debug_str     0x00000000000037f6       0x32 /opt/syslinux/bios/com32/lib/libcom32core.a(strncasecmp.o)
                                        0x295 (size before relaxing)
 .debug_str     0x0000000000003828       0x21 /opt/syslinux/bios/com32/lib/libcom32core.a(ctypes.o)
                                        0x25f (size before relaxing)
 .debug_str     0x0000000000003849       0x20 /opt/syslinux/bios/com32/lib/libcom32core.a(fputs.o)
                                        0x205 (size before relaxing)
 .debug_str     0x0000000000003869       0x22 /opt/syslinux/bios/com32/lib/libcom32core.a(fwrite2.o)
                                        0x215 (size before relaxing)
 .debug_str     0x000000000000388b       0x21 /opt/syslinux/bios/com32/lib/libcom32core.a(fwrite.o)
                                        0x2ab (size before relaxing)
 .debug_str     0x00000000000038ac       0x20 /opt/syslinux/bios/com32/lib/libcom32core.a(fgetc.o)
                                        0x27d (size before relaxing)
 .debug_str     0x00000000000038cc       0x21 /opt/syslinux/bios/com32/lib/libcom32core.a(fclose.o)
                                        0x286 (size before relaxing)
 .debug_str     0x00000000000038ed       0x22 /opt/syslinux/bios/com32/lib/libcom32core.a(lmalloc.o)
                                        0x40f (size before relaxing)
 .debug_str     0x000000000000390f       0x32 /opt/syslinux/bios/com32/lib/libcom32core.a(err_read.o)
                                        0x4e5 (size before relaxing)
 .debug_str     0x0000000000003941       0x34 /opt/syslinux/bios/com32/lib/libcom32core.a(err_write.o)
                                        0x4e7 (size before relaxing)
 .debug_str     0x0000000000003975       0x34 /opt/syslinux/bios/com32/lib/libcom32core.a(null_read.o)
                                        0x4e7 (size before relaxing)
 .debug_str     0x00000000000039a9       0x4d /opt/syslinux/bios/com32/lib/libcom32core.a(stdcon_write.o)
                                        0x816 (size before relaxing)
 .debug_str     0x00000000000039f6       0x56 /opt/syslinux/bios/com32/lib/libcom32core.a(memscan.o)
                                        0x398 (size before relaxing)
 .debug_str     0x0000000000003a4c       0x2a /opt/syslinux/bios/com32/lib/libcom32core.a(strrchr.o)
                                        0x1f4 (size before relaxing)
 .debug_str     0x0000000000003a76       0x28 /opt/syslinux/bios/com32/lib/libcom32core.a(strcat.o)
                                        0x1f3 (size before relaxing)
 .debug_str     0x0000000000003a9e       0x2b /opt/syslinux/bios/com32/lib/libcom32core.a(__ashldi3.o)
                                         0x56 (size before relaxing)
 .debug_str     0x0000000000003ac9       0x42 /opt/syslinux/bios/com32/lib/libcom32core.a(__udivdi3.o)
                                        0x266 (size before relaxing)
 .debug_str     0x0000000000003b0b       0x2a /opt/syslinux/bios/com32/lib/libcom32core.a(__negdi2.o)
                                         0x55 (size before relaxing)
 .debug_str     0x0000000000003b35       0x2b /opt/syslinux/bios/com32/lib/libcom32core.a(__ashrdi3.o)
                                         0x56 (size before relaxing)
 .debug_str     0x0000000000003b60       0x2b /opt/syslinux/bios/com32/lib/libcom32core.a(__lshrdi3.o)
                                         0x56 (size before relaxing)
 .debug_str     0x0000000000003b8b       0x2a /opt/syslinux/bios/com32/lib/libcom32core.a(__muldi3.o)
                                         0x55 (size before relaxing)
 .debug_str     0x0000000000003bb5       0x4d /opt/syslinux/bios/com32/lib/libcom32core.a(__udivmoddi4.o)
                                        0x27d (size before relaxing)
 .debug_str     0x0000000000003c02       0x35 /opt/syslinux/bios/com32/lib/libcom32core.a(__umoddi3.o)
                                        0x266 (size before relaxing)
 .debug_str     0x0000000000003c37       0x33 /opt/syslinux/bios/com32/lib/libcom32core.a(__divdi3.o)
                                        0x269 (size before relaxing)
 .debug_str     0x0000000000003c6a       0x33 /opt/syslinux/bios/com32/lib/libcom32core.a(__moddi3.o)
                                        0x272 (size before relaxing)
 .debug_str     0x0000000000003c9d       0x4e /opt/syslinux/bios/com32/lib/libcom32core.a(debug.o)
                                        0x229 (size before relaxing)
 .debug_str     0x0000000000003ceb       0x26 /opt/syslinux/bios/com32/lib/libcom32core.a(intcall.o)
                                        0x340 (size before relaxing)
 .debug_str     0x0000000000003d11       0x30 /opt/syslinux/bios/com32/lib/libcom32core.a(farcall.o)
                                        0x33e (size before relaxing)
 .debug_str     0x0000000000003d41       0x3d /opt/syslinux/bios/com32/lib/libcom32core.a(cfarcall.o)
                                        0x342 (size before relaxing)
 .debug_str     0x0000000000003d7e       0x27 /opt/syslinux/bios/com32/lib/libcom32core.a(zeroregs.o)
                                        0x326 (size before relaxing)
 .debug_str     0x0000000000003da5       0x5a /opt/syslinux/bios/com32/lib/libcom32core.a(argv.o)
                                        0x372 (size before relaxing)
 .debug_str     0x0000000000003dff       0x54 /opt/syslinux/bios/com32/lib/libcom32core.a(sleep.o)
                                        0x2b0 (size before relaxing)
 .debug_str     0x0000000000003e53       0x27 /opt/syslinux/bios/com32/lib/libcom32core.a(fileinfo.o)
                                        0x348 (size before relaxing)
 .debug_str     0x0000000000003e7a       0x3d /opt/syslinux/bios/com32/lib/libcom32core.a(opendev.o)
                                        0x50e (size before relaxing)
 .debug_str     0x0000000000003eb7       0x23 /opt/syslinux/bios/com32/lib/libcom32core.a(read.o)
                                        0x4d6 (size before relaxing)
 .debug_str     0x0000000000003eda       0x24 /opt/syslinux/bios/com32/lib/libcom32core.a(write.o)
                                        0x4d7 (size before relaxing)
 .debug_str     0x0000000000003efe       0x31 /opt/syslinux/bios/com32/lib/libcom32core.a(ftell.o)
                                        0x367 (size before relaxing)
 .debug_str     0x0000000000003f2f       0x24 /opt/syslinux/bios/com32/lib/libcom32core.a(close.o)
                                        0x4d1 (size before relaxing)
 .debug_str     0x0000000000003f53       0x2c /opt/syslinux/bios/com32/lib/libcom32core.a(open.o)
                                        0xa7d (size before relaxing)
 .debug_str     0x0000000000003f7f       0x53 /opt/syslinux/bios/com32/lib/libcom32core.a(fileread.o)
                                        0x526 (size before relaxing)
 .debug_str     0x0000000000003fd2       0x35 /opt/syslinux/bios/com32/lib/libcom32core.a(fileclose.o)
                                        0x8e0 (size before relaxing)
 .debug_str     0x0000000000004007       0x2e /opt/syslinux/bios/com32/lib/libcom32core.a(openmem.o)
                                        0x504 (size before relaxing)
 .debug_str     0x0000000000004035       0x2c /opt/syslinux/bios/com32/lib/libcom32core.a(isatty.o)
                                        0x4f5 (size before relaxing)
 .debug_str     0x0000000000004061       0x47 /opt/syslinux/bios/com32/lib/libcom32core.a(fstat.o)
                                        0x37c (size before relaxing)
 .debug_str     0x00000000000040a8       0x22 /opt/syslinux/bios/com32/lib/libcom32core.a(dprintf.o)
                                        0x1e6 (size before relaxing)
 .debug_str     0x00000000000040ca       0x23 /opt/syslinux/bios/com32/lib/libcom32core.a(vdprintf.o)
                                        0x271 (size before relaxing)
 .debug_str     0x00000000000040ed       0x3c /opt/syslinux/bios/com32/lib/libcom32core.a(idle.o)
                                        0x5af (size before relaxing)
 .debug_str     0x0000000000004129       0x2a /opt/syslinux/bios/com32/lib/libcom32core.a(exit.o)
                                        0x4ad (size before relaxing)
 .debug_str     0x0000000000004153      0x3e9 /opt/syslinux/bios/com32/lib/libcom32core.a(common.o)
                                       0x1042 (size before relaxing)
 .debug_str     0x000000000000453c      0x211 /opt/syslinux/bios/com32/lib/libcom32core.a(elf_module.o)
                                        0xb21 (size before relaxing)
 .debug_str     0x000000000000474d       0x58 /opt/syslinux/bios/com32/lib/libcom32core.a(elfutils.o)
                                        0x508 (size before relaxing)
 .debug_str     0x00000000000047a5       0x8e /opt/syslinux/bios/com32/lib/libcom32core.a(exec.o)
                                        0x551 (size before relaxing)
 .debug_str     0x0000000000004833       0xbb /opt/syslinux/bios/com32/lib/libcom32core.a(elf_module.o)
                                        0xac6 (size before relaxing)
 .debug_str     0x00000000000048ee       0x30 libisolinux.a(rawcon.o)
                                        0x8e4 (size before relaxing)
 .debug_str     0x000000000000491e       0x2a libisolinux.a(localboot.o)
                                        0x8cd (size before relaxing)
 .debug_str     0x0000000000004948       0x64 libisolinux.a(isolinux-c.o)
                                        0xae6 (size before relaxing)

.comment        0x0000000000000000       0x2c
 .comment       0x0000000000000000       0x2c libcom32.a(writestr.o)
                                         0x2d (size before relaxing)
 .comment       0x000000000000002c       0x2d libcom32.a(idle.o)
 .comment       0x000000000000002c       0x2d libcom32.a(cleanup.o)
 .comment       0x000000000000002c       0x2d libcom32.a(init.o)
 .comment       0x000000000000002c       0x2d libcom32.a(conio.o)
 .comment       0x000000000000002c       0x2d libcom32.a(writehex.o)
 .comment       0x000000000000002c       0x2d libcom32.a(load_env32.o)
 .comment       0x000000000000002c       0x2d libcom32.a(getcwd.o)
 .comment       0x000000000000002c       0x2d libcom32.a(readdir.o)
 .comment       0x000000000000002c       0x2d libcom32.a(fs.o)
 .comment       0x000000000000002c       0x2d libcom32.a(iso9660.o)
 .comment       0x000000000000002c       0x2d libcom32.a(susp_rr.o)
 .comment       0x000000000000002c       0x2d libcom32.a(chdir.o)
 .comment       0x000000000000002c       0x2d libcom32.a(diskio.o)
 .comment       0x000000000000002c       0x2d libcom32.a(diskio_bios.o)
 .comment       0x000000000000002c       0x2d libcom32.a(nonextextent.o)
 .comment       0x000000000000002c       0x2d libcom32.a(mangle.o)
 .comment       0x000000000000002c       0x2d libcom32.a(searchconfig.o)
 .comment       0x000000000000002c       0x2d libcom32.a(close.o)
 .comment       0x000000000000002c       0x2d libcom32.a(cache.o)
 .comment       0x000000000000002c       0x2d libcom32.a(pmapi.o)
 .comment       0x000000000000002c       0x2d libcom32.a(rllpack.o)
 .comment       0x000000000000002c       0x2d libcom32.a(hello.o)
 .comment       0x000000000000002c       0x2d libcom32.a(graphics.o)
 .comment       0x000000000000002c       0x2d libcom32.a(font.o)
 .comment       0x000000000000002c       0x2d libcom32.a(bios.o)
 .comment       0x000000000000002c       0x2d libcom32.a(path.o)
 .comment       0x000000000000002c       0x2d libcom32.a(init.o)
 .comment       0x000000000000002c       0x2d libcom32.a(errno.o)
 .comment       0x000000000000002c       0x2d libcom32.a(serirq.o)
 .comment       0x000000000000002c       0x2d libcom32.a(malloc.o)
 .comment       0x000000000000002c       0x2d libcom32.a(free.o)
 .comment       0x000000000000002c       0x2d libcom32.a(sysappend.o)
 .comment       0x000000000000002c       0x2d libcom32.a(kaboom.o)
 .comment       0x000000000000002c       0x2d libcom32.a(call16.o)
 .comment       0x000000000000002c       0x2d libcom32.a(dmi.o)
 .comment       0x000000000000002c       0x2d libcom32.a(getfssec.o)
 .comment       0x000000000000002c       0x2d libcom32.a(semaphore.o)
 .comment       0x000000000000002c       0x2d libcom32.a(root_thread.o)
 .comment       0x000000000000002c       0x2d libcom32.a(schedule.o)
 .comment       0x000000000000002c       0x2d libcom32.a(exit_thread.o)
 .comment       0x000000000000002c       0x2d /opt/syslinux/bios/com32/lib/libcom32core.a(memcpy.o)
 .comment       0x000000000000002c       0x2d /opt/syslinux/bios/com32/lib/libcom32core.a(memset.o)
 .comment       0x000000000000002c       0x2d /opt/syslinux/bios/com32/lib/libcom32core.a(memcmp.o)
 .comment       0x000000000000002c       0x2d /opt/syslinux/bios/com32/lib/libcom32core.a(printf.o)
 .comment       0x000000000000002c       0x2d /opt/syslinux/bios/com32/lib/libcom32core.a(strncmp.o)
 .comment       0x000000000000002c       0x2d /opt/syslinux/bios/com32/lib/libcom32core.a(vfprintf.o)
 .comment       0x000000000000002c       0x2d /opt/syslinux/bios/com32/lib/libcom32core.a(strlen.o)
 .comment       0x000000000000002c       0x2d /opt/syslinux/bios/com32/lib/libcom32core.a(vsnprintf.o)
 .comment       0x000000000000002c       0x2d /opt/syslinux/bios/com32/lib/libcom32core.a(snprintf.o)
 .comment       0x000000000000002c       0x2d /opt/syslinux/bios/com32/lib/libcom32core.a(stpcpy.o)
 .comment       0x000000000000002c       0x2d /opt/syslinux/bios/com32/lib/libcom32core.a(strcmp.o)
 .comment       0x000000000000002c       0x2d /opt/syslinux/bios/com32/lib/libcom32core.a(strdup.o)
 .comment       0x000000000000002c       0x2d /opt/syslinux/bios/com32/lib/libcom32core.a(strcpy.o)
 .comment       0x000000000000002c       0x2d /opt/syslinux/bios/com32/lib/libcom32core.a(strncpy.o)
 .comment       0x000000000000002c       0x2d /opt/syslinux/bios/com32/lib/libcom32core.a(fopen.o)
 .comment       0x000000000000002c       0x2d /opt/syslinux/bios/com32/lib/libcom32core.a(fread.o)
 .comment       0x000000000000002c       0x2d /opt/syslinux/bios/com32/lib/libcom32core.a(fread2.o)
 .comment       0x000000000000002c       0x2d /opt/syslinux/bios/com32/lib/libcom32core.a(puts.o)
 .comment       0x000000000000002c       0x2d /opt/syslinux/bios/com32/lib/libcom32core.a(strtoul.o)
 .comment       0x000000000000002c       0x2d /opt/syslinux/bios/com32/lib/libcom32core.a(strntoumax.o)
 .comment       0x000000000000002c       0x2d /opt/syslinux/bios/com32/lib/libcom32core.a(strcasecmp.o)
 .comment       0x000000000000002c       0x2d /opt/syslinux/bios/com32/lib/libcom32core.a(sprintf.o)
 .comment       0x000000000000002c       0x2d /opt/syslinux/bios/com32/lib/libcom32core.a(strlcat.o)
 .comment       0x000000000000002c       0x2d /opt/syslinux/bios/com32/lib/libcom32core.a(strchr.o)
 .comment       0x000000000000002c       0x2d /opt/syslinux/bios/com32/lib/libcom32core.a(strlcpy.o)
 .comment       0x000000000000002c       0x2d /opt/syslinux/bios/com32/lib/libcom32core.a(strncasecmp.o)
 .comment       0x000000000000002c       0x2d /opt/syslinux/bios/com32/lib/libcom32core.a(ctypes.o)
 .comment       0x000000000000002c       0x2d /opt/syslinux/bios/com32/lib/libcom32core.a(fputs.o)
 .comment       0x000000000000002c       0x2d /opt/syslinux/bios/com32/lib/libcom32core.a(fwrite2.o)
 .comment       0x000000000000002c       0x2d /opt/syslinux/bios/com32/lib/libcom32core.a(fwrite.o)
 .comment       0x000000000000002c       0x2d /opt/syslinux/bios/com32/lib/libcom32core.a(fgetc.o)
 .comment       0x000000000000002c       0x2d /opt/syslinux/bios/com32/lib/libcom32core.a(fclose.o)
 .comment       0x000000000000002c       0x2d /opt/syslinux/bios/com32/lib/libcom32core.a(lmalloc.o)
 .comment       0x000000000000002c       0x2d /opt/syslinux/bios/com32/lib/libcom32core.a(err_read.o)
 .comment       0x000000000000002c       0x2d /opt/syslinux/bios/com32/lib/libcom32core.a(err_write.o)
 .comment       0x000000000000002c       0x2d /opt/syslinux/bios/com32/lib/libcom32core.a(null_read.o)
 .comment       0x000000000000002c       0x2d /opt/syslinux/bios/com32/lib/libcom32core.a(stdcon_write.o)
 .comment       0x000000000000002c       0x2d /opt/syslinux/bios/com32/lib/libcom32core.a(memscan.o)
 .comment       0x000000000000002c       0x2d /opt/syslinux/bios/com32/lib/libcom32core.a(strrchr.o)
 .comment       0x000000000000002c       0x2d /opt/syslinux/bios/com32/lib/libcom32core.a(strcat.o)
 .comment       0x000000000000002c       0x2d /opt/syslinux/bios/com32/lib/libcom32core.a(__udivdi3.o)
 .comment       0x000000000000002c       0x2d /opt/syslinux/bios/com32/lib/libcom32core.a(__udivmoddi4.o)
 .comment       0x000000000000002c       0x2d /opt/syslinux/bios/com32/lib/libcom32core.a(__umoddi3.o)
 .comment       0x000000000000002c       0x2d /opt/syslinux/bios/com32/lib/libcom32core.a(__divdi3.o)
 .comment       0x000000000000002c       0x2d /opt/syslinux/bios/com32/lib/libcom32core.a(__moddi3.o)
 .comment       0x000000000000002c       0x2d /opt/syslinux/bios/com32/lib/libcom32core.a(debug.o)
 .comment       0x000000000000002c       0x2d /opt/syslinux/bios/com32/lib/libcom32core.a(intcall.o)
 .comment       0x000000000000002c       0x2d /opt/syslinux/bios/com32/lib/libcom32core.a(farcall.o)
 .comment       0x000000000000002c       0x2d /opt/syslinux/bios/com32/lib/libcom32core.a(cfarcall.o)
 .comment       0x000000000000002c       0x2d /opt/syslinux/bios/com32/lib/libcom32core.a(zeroregs.o)
 .comment       0x000000000000002c       0x2d /opt/syslinux/bios/com32/lib/libcom32core.a(argv.o)
 .comment       0x000000000000002c       0x2d /opt/syslinux/bios/com32/lib/libcom32core.a(sleep.o)
 .comment       0x000000000000002c       0x2d /opt/syslinux/bios/com32/lib/libcom32core.a(fileinfo.o)
 .comment       0x000000000000002c       0x2d /opt/syslinux/bios/com32/lib/libcom32core.a(opendev.o)
 .comment       0x000000000000002c       0x2d /opt/syslinux/bios/com32/lib/libcom32core.a(read.o)
 .comment       0x000000000000002c       0x2d /opt/syslinux/bios/com32/lib/libcom32core.a(write.o)
 .comment       0x000000000000002c       0x2d /opt/syslinux/bios/com32/lib/libcom32core.a(ftell.o)
 .comment       0x000000000000002c       0x2d /opt/syslinux/bios/com32/lib/libcom32core.a(close.o)
 .comment       0x000000000000002c       0x2d /opt/syslinux/bios/com32/lib/libcom32core.a(open.o)
 .comment       0x000000000000002c       0x2d /opt/syslinux/bios/com32/lib/libcom32core.a(fileread.o)
 .comment       0x000000000000002c       0x2d /opt/syslinux/bios/com32/lib/libcom32core.a(fileclose.o)
 .comment       0x000000000000002c       0x2d /opt/syslinux/bios/com32/lib/libcom32core.a(openmem.o)
 .comment       0x000000000000002c       0x2d /opt/syslinux/bios/com32/lib/libcom32core.a(isatty.o)
 .comment       0x000000000000002c       0x2d /opt/syslinux/bios/com32/lib/libcom32core.a(fstat.o)
 .comment       0x000000000000002c       0x2d /opt/syslinux/bios/com32/lib/libcom32core.a(dprintf.o)
 .comment       0x000000000000002c       0x2d /opt/syslinux/bios/com32/lib/libcom32core.a(vdprintf.o)
 .comment       0x000000000000002c       0x2d /opt/syslinux/bios/com32/lib/libcom32core.a(idle.o)
 .comment       0x000000000000002c       0x2d /opt/syslinux/bios/com32/lib/libcom32core.a(exit.o)
 .comment       0x000000000000002c       0x2d /opt/syslinux/bios/com32/lib/libcom32core.a(common.o)
 .comment       0x000000000000002c       0x2d /opt/syslinux/bios/com32/lib/libcom32core.a(elf_module.o)
 .comment       0x000000000000002c       0x2d /opt/syslinux/bios/com32/lib/libcom32core.a(elfutils.o)
 .comment       0x000000000000002c       0x2d /opt/syslinux/bios/com32/lib/libcom32core.a(exec.o)
 .comment       0x000000000000002c       0x2d /opt/syslinux/bios/com32/lib/libcom32core.a(elf_module.o)
 .comment       0x000000000000002c       0x2d libisolinux.a(rawcon.o)
 .comment       0x000000000000002c       0x2d libisolinux.a(localboot.o)
 .comment       0x000000000000002c       0x2d libisolinux.a(isolinux-c.o)

.note.GNU-stack
                0x0000000000000000        0x0
 .note.GNU-stack
                0x0000000000000000        0x0 libcom32.a(writestr.o)
 .note.GNU-stack
                0x0000000000000000        0x0 libcom32.a(idle.o)
 .note.GNU-stack
                0x0000000000000000        0x0 libcom32.a(cleanup.o)
 .note.GNU-stack
                0x0000000000000000        0x0 libcom32.a(init.o)
 .note.GNU-stack
                0x0000000000000000        0x0 libcom32.a(conio.o)
 .note.GNU-stack
                0x0000000000000000        0x0 libcom32.a(writehex.o)
 .note.GNU-stack
                0x0000000000000000        0x0 libcom32.a(load_env32.o)
 .note.GNU-stack
                0x0000000000000000        0x0 libcom32.a(getcwd.o)
 .note.GNU-stack
                0x0000000000000000        0x0 libcom32.a(readdir.o)
 .note.GNU-stack
                0x0000000000000000        0x0 libcom32.a(fs.o)
 .note.GNU-stack
                0x0000000000000000        0x0 libcom32.a(iso9660.o)
 .note.GNU-stack
                0x0000000000000000        0x0 libcom32.a(susp_rr.o)
 .note.GNU-stack
                0x0000000000000000        0x0 libcom32.a(chdir.o)
 .note.GNU-stack
                0x0000000000000000        0x0 libcom32.a(diskio.o)
 .note.GNU-stack
                0x0000000000000000        0x0 libcom32.a(diskio_bios.o)
 .note.GNU-stack
                0x0000000000000000        0x0 libcom32.a(nonextextent.o)
 .note.GNU-stack
                0x0000000000000000        0x0 libcom32.a(mangle.o)
 .note.GNU-stack
                0x0000000000000000        0x0 libcom32.a(searchconfig.o)
 .note.GNU-stack
                0x0000000000000000        0x0 libcom32.a(close.o)
 .note.GNU-stack
                0x0000000000000000        0x0 libcom32.a(cache.o)
 .note.GNU-stack
                0x0000000000000000        0x0 libcom32.a(pmapi.o)
 .note.GNU-stack
                0x0000000000000000        0x0 libcom32.a(rllpack.o)
 .note.GNU-stack
                0x0000000000000000        0x0 libcom32.a(hello.o)
 .note.GNU-stack
                0x0000000000000000        0x0 libcom32.a(graphics.o)
 .note.GNU-stack
                0x0000000000000000        0x0 libcom32.a(font.o)
 .note.GNU-stack
                0x0000000000000000        0x0 libcom32.a(bios.o)
 .note.GNU-stack
                0x0000000000000000        0x0 libcom32.a(path.o)
 .note.GNU-stack
                0x0000000000000000        0x0 libcom32.a(init.o)
 .note.GNU-stack
                0x0000000000000000        0x0 libcom32.a(lzo1x_f2.o)
 .note.GNU-stack
                0x0000000000000000        0x0 libcom32.a(errno.o)
 .note.GNU-stack
                0x0000000000000000        0x0 libcom32.a(serirq.o)
 .note.GNU-stack
                0x0000000000000000        0x0 libcom32.a(malloc.o)
 .note.GNU-stack
                0x0000000000000000        0x0 libcom32.a(free.o)
 .note.GNU-stack
                0x0000000000000000        0x0 libcom32.a(sysappend.o)
 .note.GNU-stack
                0x0000000000000000        0x0 libcom32.a(kaboom.o)
 .note.GNU-stack
                0x0000000000000000        0x0 libcom32.a(call16.o)
 .note.GNU-stack
                0x0000000000000000        0x0 libcom32.a(dmi.o)
 .note.GNU-stack
                0x0000000000000000        0x0 libcom32.a(getfssec.o)
 .note.GNU-stack
                0x0000000000000000        0x0 libcom32.a(semaphore.o)
 .note.GNU-stack
                0x0000000000000000        0x0 libcom32.a(root_thread.o)
 .note.GNU-stack
                0x0000000000000000        0x0 libcom32.a(schedule.o)
 .note.GNU-stack
                0x0000000000000000        0x0 libcom32.a(exit_thread.o)
 .note.GNU-stack
                0x0000000000000000        0x0 /opt/syslinux/bios/com32/lib/libcom32core.a(memcpy.o)
 .note.GNU-stack
                0x0000000000000000        0x0 /opt/syslinux/bios/com32/lib/libcom32core.a(memset.o)
 .note.GNU-stack
                0x0000000000000000        0x0 /opt/syslinux/bios/com32/lib/libcom32core.a(memcmp.o)
 .note.GNU-stack
                0x0000000000000000        0x0 /opt/syslinux/bios/com32/lib/libcom32core.a(printf.o)
 .note.GNU-stack
                0x0000000000000000        0x0 /opt/syslinux/bios/com32/lib/libcom32core.a(strncmp.o)
 .note.GNU-stack
                0x0000000000000000        0x0 /opt/syslinux/bios/com32/lib/libcom32core.a(vfprintf.o)
 .note.GNU-stack
                0x0000000000000000        0x0 /opt/syslinux/bios/com32/lib/libcom32core.a(strlen.o)
 .note.GNU-stack
                0x0000000000000000        0x0 /opt/syslinux/bios/com32/lib/libcom32core.a(vsnprintf.o)
 .note.GNU-stack
                0x0000000000000000        0x0 /opt/syslinux/bios/com32/lib/libcom32core.a(snprintf.o)
 .note.GNU-stack
                0x0000000000000000        0x0 /opt/syslinux/bios/com32/lib/libcom32core.a(stpcpy.o)
 .note.GNU-stack
                0x0000000000000000        0x0 /opt/syslinux/bios/com32/lib/libcom32core.a(strcmp.o)
 .note.GNU-stack
                0x0000000000000000        0x0 /opt/syslinux/bios/com32/lib/libcom32core.a(strdup.o)
 .note.GNU-stack
                0x0000000000000000        0x0 /opt/syslinux/bios/com32/lib/libcom32core.a(strcpy.o)
 .note.GNU-stack
                0x0000000000000000        0x0 /opt/syslinux/bios/com32/lib/libcom32core.a(strncpy.o)
 .note.GNU-stack
                0x0000000000000000        0x0 /opt/syslinux/bios/com32/lib/libcom32core.a(fopen.o)
 .note.GNU-stack
                0x0000000000000000        0x0 /opt/syslinux/bios/com32/lib/libcom32core.a(fread.o)
 .note.GNU-stack
                0x0000000000000000        0x0 /opt/syslinux/bios/com32/lib/libcom32core.a(fread2.o)
 .note.GNU-stack
                0x0000000000000000        0x0 /opt/syslinux/bios/com32/lib/libcom32core.a(puts.o)
 .note.GNU-stack
                0x0000000000000000        0x0 /opt/syslinux/bios/com32/lib/libcom32core.a(strtoul.o)
 .note.GNU-stack
                0x0000000000000000        0x0 /opt/syslinux/bios/com32/lib/libcom32core.a(strntoumax.o)
 .note.GNU-stack
                0x0000000000000000        0x0 /opt/syslinux/bios/com32/lib/libcom32core.a(strcasecmp.o)
 .note.GNU-stack
                0x0000000000000000        0x0 /opt/syslinux/bios/com32/lib/libcom32core.a(sprintf.o)
 .note.GNU-stack
                0x0000000000000000        0x0 /opt/syslinux/bios/com32/lib/libcom32core.a(strlcat.o)
 .note.GNU-stack
                0x0000000000000000        0x0 /opt/syslinux/bios/com32/lib/libcom32core.a(strchr.o)
 .note.GNU-stack
                0x0000000000000000        0x0 /opt/syslinux/bios/com32/lib/libcom32core.a(strlcpy.o)
 .note.GNU-stack
                0x0000000000000000        0x0 /opt/syslinux/bios/com32/lib/libcom32core.a(strncasecmp.o)
 .note.GNU-stack
                0x0000000000000000        0x0 /opt/syslinux/bios/com32/lib/libcom32core.a(ctypes.o)
 .note.GNU-stack
                0x0000000000000000        0x0 /opt/syslinux/bios/com32/lib/libcom32core.a(fputs.o)
 .note.GNU-stack
                0x0000000000000000        0x0 /opt/syslinux/bios/com32/lib/libcom32core.a(fwrite2.o)
 .note.GNU-stack
                0x0000000000000000        0x0 /opt/syslinux/bios/com32/lib/libcom32core.a(fwrite.o)
 .note.GNU-stack
                0x0000000000000000        0x0 /opt/syslinux/bios/com32/lib/libcom32core.a(fgetc.o)
 .note.GNU-stack
                0x0000000000000000        0x0 /opt/syslinux/bios/com32/lib/libcom32core.a(fclose.o)
 .note.GNU-stack
                0x0000000000000000        0x0 /opt/syslinux/bios/com32/lib/libcom32core.a(lmalloc.o)
 .note.GNU-stack
                0x0000000000000000        0x0 /opt/syslinux/bios/com32/lib/libcom32core.a(err_read.o)
 .note.GNU-stack
                0x0000000000000000        0x0 /opt/syslinux/bios/com32/lib/libcom32core.a(err_write.o)
 .note.GNU-stack
                0x0000000000000000        0x0 /opt/syslinux/bios/com32/lib/libcom32core.a(null_read.o)
 .note.GNU-stack
                0x0000000000000000        0x0 /opt/syslinux/bios/com32/lib/libcom32core.a(stdcon_write.o)
 .note.GNU-stack
                0x0000000000000000        0x0 /opt/syslinux/bios/com32/lib/libcom32core.a(memscan.o)
 .note.GNU-stack
                0x0000000000000000        0x0 /opt/syslinux/bios/com32/lib/libcom32core.a(strrchr.o)
 .note.GNU-stack
                0x0000000000000000        0x0 /opt/syslinux/bios/com32/lib/libcom32core.a(strcat.o)
 .note.GNU-stack
                0x0000000000000000        0x0 /opt/syslinux/bios/com32/lib/libcom32core.a(__udivdi3.o)
 .note.GNU-stack
                0x0000000000000000        0x0 /opt/syslinux/bios/com32/lib/libcom32core.a(__udivmoddi4.o)
 .note.GNU-stack
                0x0000000000000000        0x0 /opt/syslinux/bios/com32/lib/libcom32core.a(__umoddi3.o)
 .note.GNU-stack
                0x0000000000000000        0x0 /opt/syslinux/bios/com32/lib/libcom32core.a(__divdi3.o)
 .note.GNU-stack
                0x0000000000000000        0x0 /opt/syslinux/bios/com32/lib/libcom32core.a(__moddi3.o)
 .note.GNU-stack
                0x0000000000000000        0x0 /opt/syslinux/bios/com32/lib/libcom32core.a(debug.o)
 .note.GNU-stack
                0x0000000000000000        0x0 /opt/syslinux/bios/com32/lib/libcom32core.a(intcall.o)
 .note.GNU-stack
                0x0000000000000000        0x0 /opt/syslinux/bios/com32/lib/libcom32core.a(farcall.o)
 .note.GNU-stack
                0x0000000000000000        0x0 /opt/syslinux/bios/com32/lib/libcom32core.a(cfarcall.o)
 .note.GNU-stack
                0x0000000000000000        0x0 /opt/syslinux/bios/com32/lib/libcom32core.a(zeroregs.o)
 .note.GNU-stack
                0x0000000000000000        0x0 /opt/syslinux/bios/com32/lib/libcom32core.a(argv.o)
 .note.GNU-stack
                0x0000000000000000        0x0 /opt/syslinux/bios/com32/lib/libcom32core.a(sleep.o)
 .note.GNU-stack
                0x0000000000000000        0x0 /opt/syslinux/bios/com32/lib/libcom32core.a(fileinfo.o)
 .note.GNU-stack
                0x0000000000000000        0x0 /opt/syslinux/bios/com32/lib/libcom32core.a(opendev.o)
 .note.GNU-stack
                0x0000000000000000        0x0 /opt/syslinux/bios/com32/lib/libcom32core.a(read.o)
 .note.GNU-stack
                0x0000000000000000        0x0 /opt/syslinux/bios/com32/lib/libcom32core.a(write.o)
 .note.GNU-stack
                0x0000000000000000        0x0 /opt/syslinux/bios/com32/lib/libcom32core.a(ftell.o)
 .note.GNU-stack
                0x0000000000000000        0x0 /opt/syslinux/bios/com32/lib/libcom32core.a(close.o)
 .note.GNU-stack
                0x0000000000000000        0x0 /opt/syslinux/bios/com32/lib/libcom32core.a(open.o)
 .note.GNU-stack
                0x0000000000000000        0x0 /opt/syslinux/bios/com32/lib/libcom32core.a(fileread.o)
 .note.GNU-stack
                0x0000000000000000        0x0 /opt/syslinux/bios/com32/lib/libcom32core.a(fileclose.o)
 .note.GNU-stack
                0x0000000000000000        0x0 /opt/syslinux/bios/com32/lib/libcom32core.a(openmem.o)
 .note.GNU-stack
                0x0000000000000000        0x0 /opt/syslinux/bios/com32/lib/libcom32core.a(isatty.o)
 .note.GNU-stack
                0x0000000000000000        0x0 /opt/syslinux/bios/com32/lib/libcom32core.a(fstat.o)
 .note.GNU-stack
                0x0000000000000000        0x0 /opt/syslinux/bios/com32/lib/libcom32core.a(dprintf.o)
 .note.GNU-stack
                0x0000000000000000        0x0 /opt/syslinux/bios/com32/lib/libcom32core.a(vdprintf.o)
 .note.GNU-stack
                0x0000000000000000        0x0 /opt/syslinux/bios/com32/lib/libcom32core.a(idle.o)
 .note.GNU-stack
                0x0000000000000000        0x0 /opt/syslinux/bios/com32/lib/libcom32core.a(exit.o)
 .note.GNU-stack
                0x0000000000000000        0x0 /opt/syslinux/bios/com32/lib/libcom32core.a(common.o)
 .note.GNU-stack
                0x0000000000000000        0x0 /opt/syslinux/bios/com32/lib/libcom32core.a(elf_module.o)
 .note.GNU-stack
                0x0000000000000000        0x0 /opt/syslinux/bios/com32/lib/libcom32core.a(elfutils.o)
 .note.GNU-stack
                0x0000000000000000        0x0 /opt/syslinux/bios/com32/lib/libcom32core.a(exec.o)
 .note.GNU-stack
                0x0000000000000000        0x0 /opt/syslinux/bios/com32/lib/libcom32core.a(elf_module.o)
 .note.GNU-stack
                0x0000000000000000        0x0 libisolinux.a(rawcon.o)
 .note.GNU-stack
                0x0000000000000000        0x0 libisolinux.a(localboot.o)
 .note.GNU-stack
                0x0000000000000000        0x0 libisolinux.a(isolinux-c.o)
